
runtest.exe:     file format elf64-loongarch
runtest.exe


Disassembly of section .init:

0000000120000120 <_init>:
_init():
/home/airxs/user/os/system/libc/loongarch-musl/crt/loongarch64/crti.s:5
   120000120:	02ff8063 	addi.d      	$sp, $sp, -32(0xfe0)
/home/airxs/user/os/system/libc/loongarch-musl/crt/loongarch64/crti.s:6
   120000124:	29c0407f 	st.d        	$s8, $sp, 16(0x10)
/home/airxs/user/os/system/libc/loongarch-musl/crt/loongarch64/crti.s:7
   120000128:	29c06061 	st.d        	$ra, $sp, 24(0x18)
   12000012c:	03400000 	andi        	$zero, $zero, 0x0
/home/airxs/user/os/system/libc/loongarch-musl/crt/loongarch64/crtn.s:2
   120000130:	28c0407f 	ld.d        	$s8, $sp, 16(0x10)
/home/airxs/user/os/system/libc/loongarch-musl/crt/loongarch64/crtn.s:3
   120000134:	28c06061 	ld.d        	$ra, $sp, 24(0x18)
/home/airxs/user/os/system/libc/loongarch-musl/crt/loongarch64/crtn.s:4
   120000138:	02c08063 	addi.d      	$sp, $sp, 32(0x20)
/home/airxs/user/os/system/libc/loongarch-musl/crt/loongarch64/crtn.s:5
   12000013c:	4c000020 	jirl        	$zero, $ra, 0

Disassembly of section .text:

0000000120000200 <exit>:
exit():
/home/airxs/user/os/system/libc/loongarch-musl/src/exit/exit.c:28
   120000200:	02ffc063 	addi.d      	$sp, $sp, -16(0xff0)
   120000204:	29c02061 	st.d        	$ra, $sp, 8(0x8)
   120000208:	29c00077 	st.d        	$s0, $sp, 0
   12000020c:	00150097 	move        	$s0, $a0
/home/airxs/user/os/system/libc/loongarch-musl/src/exit/exit.c:29
   120000210:	54483400 	bl          	18484(0x4834)	# 120004a44 <__funcs_on_exit>
/home/airxs/user/os/system/libc/loongarch-musl/src/exit/exit.c:30
   120000214:	54483400 	bl          	18484(0x4834)	# 120004a48 <__libc_exit_fini>
/home/airxs/user/os/system/libc/loongarch-musl/src/exit/exit.c:31
   120000218:	54dc8c00 	bl          	56460(0xdc8c)	# 12000dea4 <__stdio_exit>
/home/airxs/user/os/system/libc/loongarch-musl/src/exit/exit.c:32
   12000021c:	001502e4 	move        	$a0, $s0
   120000220:	549f3800 	bl          	40760(0x9f38)	# 12000a158 <_Exit>
   120000224:	03400000 	andi        	$zero, $zero, 0x0
   120000228:	03400000 	andi        	$zero, $zero, 0x0
   12000022c:	03400000 	andi        	$zero, $zero, 0x0
   120000230:	03400000 	andi        	$zero, $zero, 0x0
   120000234:	03400000 	andi        	$zero, $zero, 0x0
   120000238:	03400000 	andi        	$zero, $zero, 0x0
   12000023c:	03400000 	andi        	$zero, $zero, 0x0
   120000240:	03400000 	andi        	$zero, $zero, 0x0
   120000244:	03400000 	andi        	$zero, $zero, 0x0
   120000248:	03400000 	andi        	$zero, $zero, 0x0
   12000024c:	03400000 	andi        	$zero, $zero, 0x0
   120000250:	03400000 	andi        	$zero, $zero, 0x0
   120000254:	03400000 	andi        	$zero, $zero, 0x0
   120000258:	03400000 	andi        	$zero, $zero, 0x0
   12000025c:	03400000 	andi        	$zero, $zero, 0x0
   120000260:	03400000 	andi        	$zero, $zero, 0x0
   120000264:	03400000 	andi        	$zero, $zero, 0x0
   120000268:	03400000 	andi        	$zero, $zero, 0x0
   12000026c:	03400000 	andi        	$zero, $zero, 0x0
   120000270:	03400000 	andi        	$zero, $zero, 0x0
   120000274:	03400000 	andi        	$zero, $zero, 0x0
   120000278:	03400000 	andi        	$zero, $zero, 0x0
   12000027c:	03400000 	andi        	$zero, $zero, 0x0
   120000280:	03400000 	andi        	$zero, $zero, 0x0
   120000284:	03400000 	andi        	$zero, $zero, 0x0
   120000288:	03400000 	andi        	$zero, $zero, 0x0
   12000028c:	03400000 	andi        	$zero, $zero, 0x0
   120000290:	03400000 	andi        	$zero, $zero, 0x0
   120000294:	03400000 	andi        	$zero, $zero, 0x0
   120000298:	03400000 	andi        	$zero, $zero, 0x0
   12000029c:	03400000 	andi        	$zero, $zero, 0x0
   1200002a0:	03400000 	andi        	$zero, $zero, 0x0
   1200002a4:	03400000 	andi        	$zero, $zero, 0x0
   1200002a8:	03400000 	andi        	$zero, $zero, 0x0
   1200002ac:	03400000 	andi        	$zero, $zero, 0x0
   1200002b0:	03400000 	andi        	$zero, $zero, 0x0
   1200002b4:	03400000 	andi        	$zero, $zero, 0x0
   1200002b8:	03400000 	andi        	$zero, $zero, 0x0
   1200002bc:	03400000 	andi        	$zero, $zero, 0x0
   1200002c0:	03400000 	andi        	$zero, $zero, 0x0
   1200002c4:	03400000 	andi        	$zero, $zero, 0x0
   1200002c8:	03400000 	andi        	$zero, $zero, 0x0
   1200002cc:	03400000 	andi        	$zero, $zero, 0x0
   1200002d0:	03400000 	andi        	$zero, $zero, 0x0
   1200002d4:	03400000 	andi        	$zero, $zero, 0x0
   1200002d8:	03400000 	andi        	$zero, $zero, 0x0
   1200002dc:	03400000 	andi        	$zero, $zero, 0x0
   1200002e0:	03400000 	andi        	$zero, $zero, 0x0
   1200002e4:	03400000 	andi        	$zero, $zero, 0x0
   1200002e8:	03400000 	andi        	$zero, $zero, 0x0
   1200002ec:	03400000 	andi        	$zero, $zero, 0x0
   1200002f0:	03400000 	andi        	$zero, $zero, 0x0
   1200002f4:	03400000 	andi        	$zero, $zero, 0x0
   1200002f8:	03400000 	andi        	$zero, $zero, 0x0
   1200002fc:	03400000 	andi        	$zero, $zero, 0x0

0000000120000300 <__start>:
__start():
   120000300:	00100016 	add.w       	$fp, $zero, $zero
   120000304:	54000400 	bl          	4(0x4)	# 120000308 <_start_data>

0000000120000308 <_start_data>:
_start_data():
   120000308:	00150064 	move        	$a0, $sp
   12000030c:	1c000005 	pcaddu12i   	$a1, 0
   120000310:	02c010a5 	addi.d      	$a1, $a1, 4(0x4)
   120000314:	02bfc013 	addi.w      	$t7, $zero, -16(0xff0)
   120000318:	0014cc63 	and         	$sp, $sp, $t7
   12000031c:	1c00000c 	pcaddu12i   	$t0, 0
   120000320:	02c3918c 	addi.d      	$t0, $t0, 228(0xe4)
   120000324:	4c00018d 	jirl        	$t1, $t0, 0
   120000328:	03400000 	andi        	$zero, $zero, 0x0
   12000032c:	03400000 	andi        	$zero, $zero, 0x0
   120000330:	03400000 	andi        	$zero, $zero, 0x0
   120000334:	03400000 	andi        	$zero, $zero, 0x0
   120000338:	03400000 	andi        	$zero, $zero, 0x0
   12000033c:	03400000 	andi        	$zero, $zero, 0x0
   120000340:	03400000 	andi        	$zero, $zero, 0x0
   120000344:	03400000 	andi        	$zero, $zero, 0x0
   120000348:	03400000 	andi        	$zero, $zero, 0x0
   12000034c:	03400000 	andi        	$zero, $zero, 0x0
   120000350:	03400000 	andi        	$zero, $zero, 0x0
   120000354:	03400000 	andi        	$zero, $zero, 0x0
   120000358:	03400000 	andi        	$zero, $zero, 0x0
   12000035c:	03400000 	andi        	$zero, $zero, 0x0
   120000360:	03400000 	andi        	$zero, $zero, 0x0
   120000364:	03400000 	andi        	$zero, $zero, 0x0
   120000368:	03400000 	andi        	$zero, $zero, 0x0
   12000036c:	03400000 	andi        	$zero, $zero, 0x0
   120000370:	03400000 	andi        	$zero, $zero, 0x0
   120000374:	03400000 	andi        	$zero, $zero, 0x0
   120000378:	03400000 	andi        	$zero, $zero, 0x0
   12000037c:	03400000 	andi        	$zero, $zero, 0x0
   120000380:	03400000 	andi        	$zero, $zero, 0x0
   120000384:	03400000 	andi        	$zero, $zero, 0x0
   120000388:	03400000 	andi        	$zero, $zero, 0x0
   12000038c:	03400000 	andi        	$zero, $zero, 0x0
   120000390:	03400000 	andi        	$zero, $zero, 0x0
   120000394:	03400000 	andi        	$zero, $zero, 0x0
   120000398:	03400000 	andi        	$zero, $zero, 0x0
   12000039c:	03400000 	andi        	$zero, $zero, 0x0
   1200003a0:	03400000 	andi        	$zero, $zero, 0x0
   1200003a4:	03400000 	andi        	$zero, $zero, 0x0
   1200003a8:	03400000 	andi        	$zero, $zero, 0x0
   1200003ac:	03400000 	andi        	$zero, $zero, 0x0
   1200003b0:	03400000 	andi        	$zero, $zero, 0x0
   1200003b4:	03400000 	andi        	$zero, $zero, 0x0
   1200003b8:	03400000 	andi        	$zero, $zero, 0x0
   1200003bc:	03400000 	andi        	$zero, $zero, 0x0
   1200003c0:	03400000 	andi        	$zero, $zero, 0x0
   1200003c4:	03400000 	andi        	$zero, $zero, 0x0
   1200003c8:	03400000 	andi        	$zero, $zero, 0x0
   1200003cc:	03400000 	andi        	$zero, $zero, 0x0
   1200003d0:	03400000 	andi        	$zero, $zero, 0x0
   1200003d4:	03400000 	andi        	$zero, $zero, 0x0
   1200003d8:	03400000 	andi        	$zero, $zero, 0x0
   1200003dc:	03400000 	andi        	$zero, $zero, 0x0
   1200003e0:	03400000 	andi        	$zero, $zero, 0x0
   1200003e4:	03400000 	andi        	$zero, $zero, 0x0
   1200003e8:	03400000 	andi        	$zero, $zero, 0x0
   1200003ec:	03400000 	andi        	$zero, $zero, 0x0
   1200003f0:	03400000 	andi        	$zero, $zero, 0x0
   1200003f4:	03400000 	andi        	$zero, $zero, 0x0
   1200003f8:	03400000 	andi        	$zero, $zero, 0x0
   1200003fc:	03400000 	andi        	$zero, $zero, 0x0

0000000120000400 <_start_c>:
_start_c():
/home/airxs/user/os/system/libc/loongarch-musl/crt/crt1.c:15
   120000400:	02ffc063 	addi.d      	$sp, $sp, -16(0xff0)
   120000404:	29c02061 	st.d        	$ra, $sp, 8(0x8)
/home/airxs/user/os/system/libc/loongarch-musl/crt/crt1.c:18
   120000408:	00150009 	move        	$a5, $zero
   12000040c:	1c000308 	pcaddu12i   	$a4, 24(0x18)
   120000410:	28f73108 	ld.d        	$a4, $a4, -564(0xdcc)
   120000414:	1c000307 	pcaddu12i   	$a3, 24(0x18)
   120000418:	28f5f0e7 	ld.d        	$a3, $a3, -644(0xd7c)
   12000041c:	02c02086 	addi.d      	$a2, $a0, 8(0x8)
   120000420:	28800085 	ld.w        	$a1, $a0, 0
   120000424:	1c000304 	pcaddu12i   	$a0, 24(0x18)
   120000428:	28f69084 	ld.d        	$a0, $a0, -604(0xda4)
   12000042c:	54454800 	bl          	17736(0x4548)	# 120004974 <__libc_start_main>
/home/airxs/user/os/system/libc/loongarch-musl/crt/crt1.c:19
   120000430:	28c02061 	ld.d        	$ra, $sp, 8(0x8)
   120000434:	02c04063 	addi.d      	$sp, $sp, 16(0x10)
   120000438:	4c000020 	jirl        	$zero, $ra, 0
   12000043c:	03400000 	andi        	$zero, $zero, 0x0

0000000120000440 <deregister_tm_clones>:
deregister_tm_clones():
   120000440:	02ffc063 	addi.d      	$sp, $sp, -16(0xff0)
   120000444:	29c02076 	st.d        	$fp, $sp, 8(0x8)
   120000448:	02c04076 	addi.d      	$fp, $sp, 16(0x10)
   12000044c:	1c000304 	pcaddu12i   	$a0, 24(0x18)
   120000450:	02f45084 	addi.d      	$a0, $a0, -748(0xd14)
   120000454:	1c00030c 	pcaddu12i   	$t0, 24(0x18)
   120000458:	02f4318c 	addi.d      	$t0, $t0, -756(0xd0c)
   12000045c:	58001d84 	beq         	$t0, $a0, 28(0x1c)	# 120000478 <deregister_tm_clones+0x38>
   120000460:	1c00030c 	pcaddu12i   	$t0, 24(0x18)
   120000464:	28f5618c 	ld.d        	$t0, $t0, -680(0xd58)
   120000468:	40001180 	beqz        	$t0, 16(0x10)	# 120000478 <deregister_tm_clones+0x38>
   12000046c:	28c02076 	ld.d        	$fp, $sp, 8(0x8)
   120000470:	02c04063 	addi.d      	$sp, $sp, 16(0x10)
   120000474:	4c000180 	jirl        	$zero, $t0, 0
   120000478:	28c02076 	ld.d        	$fp, $sp, 8(0x8)
   12000047c:	02c04063 	addi.d      	$sp, $sp, 16(0x10)
   120000480:	4c000020 	jirl        	$zero, $ra, 0
   120000484:	03400000 	andi        	$zero, $zero, 0x0
   120000488:	03400000 	andi        	$zero, $zero, 0x0
   12000048c:	03400000 	andi        	$zero, $zero, 0x0

0000000120000490 <register_tm_clones>:
register_tm_clones():
   120000490:	1c000304 	pcaddu12i   	$a0, 24(0x18)
   120000494:	02f34084 	addi.d      	$a0, $a0, -816(0xcd0)
   120000498:	1c000305 	pcaddu12i   	$a1, 24(0x18)
   12000049c:	02f320a5 	addi.d      	$a1, $a1, -824(0xcc8)
   1200004a0:	001190a5 	sub.d       	$a1, $a1, $a0
   1200004a4:	00490ca5 	srai.d      	$a1, $a1, 0x3
   1200004a8:	02ffc063 	addi.d      	$sp, $sp, -16(0xff0)
   1200004ac:	0045fcac 	srli.d      	$t0, $a1, 0x3f
   1200004b0:	29c02076 	st.d        	$fp, $sp, 8(0x8)
   1200004b4:	00109585 	add.d       	$a1, $t0, $a1
   1200004b8:	02c04076 	addi.d      	$fp, $sp, 16(0x10)
   1200004bc:	004904a5 	srai.d      	$a1, $a1, 0x1
   1200004c0:	400020a0 	beqz        	$a1, 32(0x20)	# 1200004e0 <register_tm_clones+0x50>
   1200004c4:	1c00030c 	pcaddu12i   	$t0, 24(0x18)
   1200004c8:	28f3718c 	ld.d        	$t0, $t0, -804(0xcdc)
   1200004cc:	40001580 	beqz        	$t0, 20(0x14)	# 1200004e0 <register_tm_clones+0x50>
   1200004d0:	28c02076 	ld.d        	$fp, $sp, 8(0x8)
   1200004d4:	02c04063 	addi.d      	$sp, $sp, 16(0x10)
   1200004d8:	4c000180 	jirl        	$zero, $t0, 0
   1200004dc:	03400000 	andi        	$zero, $zero, 0x0
   1200004e0:	28c02076 	ld.d        	$fp, $sp, 8(0x8)
   1200004e4:	02c04063 	addi.d      	$sp, $sp, 16(0x10)
   1200004e8:	4c000020 	jirl        	$zero, $ra, 0
   1200004ec:	03400000 	andi        	$zero, $zero, 0x0

00000001200004f0 <__do_global_dtors_aux>:
__do_global_dtors_aux():
   1200004f0:	02ff8063 	addi.d      	$sp, $sp, -32(0xfe0)
   1200004f4:	29c04076 	st.d        	$fp, $sp, 16(0x10)
   1200004f8:	29c02077 	st.d        	$s0, $sp, 8(0x8)
   1200004fc:	29c06061 	st.d        	$ra, $sp, 24(0x18)
   120000500:	02c08076 	addi.d      	$fp, $sp, 32(0x20)
   120000504:	1c000317 	pcaddu12i   	$s0, 24(0x18)
   120000508:	02f3f2f7 	addi.d      	$s0, $s0, -772(0xcfc)
   12000050c:	2a0002ec 	ld.bu       	$t0, $s0, 0
   120000510:	44003580 	bnez        	$t0, 52(0x34)	# 120000544 <__do_global_dtors_aux+0x54>
   120000514:	1c00030c 	pcaddu12i   	$t0, 24(0x18)
   120000518:	28f1718c 	ld.d        	$t0, $t0, -932(0xc5c)
   12000051c:	40001d80 	beqz        	$t0, 28(0x1c)	# 120000538 <__do_global_dtors_aux+0x48>
   120000520:	1c00030c 	pcaddu12i   	$t0, 24(0x18)
   120000524:	02f3618c 	addi.d      	$t0, $t0, -808(0xcd8)
   120000528:	28c00184 	ld.d        	$a0, $t0, 0
   12000052c:	1c000301 	pcaddu12i   	$ra, 24(0x18)
   120000530:	28f11021 	ld.d        	$ra, $ra, -956(0xc44)
   120000534:	4c000021 	jirl        	$ra, $ra, 0
   120000538:	57ff0bff 	bl          	-248(0xfffff08)	# 120000440 <deregister_tm_clones>
   12000053c:	0280040c 	addi.w      	$t0, $zero, 1(0x1)
   120000540:	290002ec 	st.b        	$t0, $s0, 0
   120000544:	28c06061 	ld.d        	$ra, $sp, 24(0x18)
   120000548:	28c04076 	ld.d        	$fp, $sp, 16(0x10)
   12000054c:	28c02077 	ld.d        	$s0, $sp, 8(0x8)
   120000550:	02c08063 	addi.d      	$sp, $sp, 32(0x20)
   120000554:	4c000020 	jirl        	$zero, $ra, 0
   120000558:	03400000 	andi        	$zero, $zero, 0x0
   12000055c:	03400000 	andi        	$zero, $zero, 0x0

0000000120000560 <frame_dummy>:
frame_dummy():
   120000560:	02ffc063 	addi.d      	$sp, $sp, -16(0xff0)
   120000564:	29c02076 	st.d        	$fp, $sp, 8(0x8)
   120000568:	02c04076 	addi.d      	$fp, $sp, 16(0x10)
   12000056c:	28c02076 	ld.d        	$fp, $sp, 8(0x8)
   120000570:	02c04063 	addi.d      	$sp, $sp, 16(0x10)
   120000574:	53ff1fff 	b           	-228(0xfffff1c)	# 120000490 <register_tm_clones>
   120000578:	03400000 	andi        	$zero, $zero, 0x0
   12000057c:	03400000 	andi        	$zero, $zero, 0x0

0000000120000580 <handler>:
handler():
/home/airxs/user/os/testsuites/testsuits-for-oskernel/libc-test/src/common/runtest.c:14
   120000580:	02ff8063 	addi.d      	$sp, $sp, -32(0xfe0)
   120000584:	29c06076 	st.d        	$fp, $sp, 24(0x18)
   120000588:	02c08076 	addi.d      	$fp, $sp, 32(0x20)
   12000058c:	0015008c 	move        	$t0, $a0
   120000590:	0040818c 	slli.w      	$t0, $t0, 0x0
   120000594:	29bfb2cc 	st.w        	$t0, $fp, -20(0xfec)
/home/airxs/user/os/testsuites/testsuits-for-oskernel/libc-test/src/common/runtest.c:15
   120000598:	03400000 	andi        	$zero, $zero, 0x0
   12000059c:	28c06076 	ld.d        	$fp, $sp, 24(0x18)
   1200005a0:	02c08063 	addi.d      	$sp, $sp, 32(0x20)
   1200005a4:	4c000020 	jirl        	$zero, $ra, 0

00000001200005a8 <start>:
start():
/home/airxs/user/os/testsuites/testsuits-for-oskernel/libc-test/src/common/runtest.c:18
   1200005a8:	02ff0063 	addi.d      	$sp, $sp, -64(0xfc0)
   1200005ac:	29c0e061 	st.d        	$ra, $sp, 56(0x38)
   1200005b0:	29c0c076 	st.d        	$fp, $sp, 48(0x30)
   1200005b4:	29c0a077 	st.d        	$s0, $sp, 40(0x28)
   1200005b8:	02c10076 	addi.d      	$fp, $sp, 64(0x40)
   1200005bc:	29ff22c4 	st.d        	$a0, $fp, -56(0xfc8)
   1200005c0:	29ff02c5 	st.d        	$a1, $fp, -64(0xfc0)
/home/airxs/user/os/testsuites/testsuits-for-oskernel/libc-test/src/common/runtest.c:21
   1200005c4:	547b4000 	bl          	31552(0x7b40)	# 120008104 <fork>
   1200005c8:	0015008c 	move        	$t0, $a0
   1200005cc:	29bf72cc 	st.w        	$t0, $fp, -36(0xfdc)
/home/airxs/user/os/testsuites/testsuits-for-oskernel/libc-test/src/common/runtest.c:22
   1200005d0:	28bf72cc 	ld.w        	$t0, $fp, -36(0xfdc)
   1200005d4:	44008580 	bnez        	$t0, 132(0x84)	# 120000658 <start+0xb0>
/home/airxs/user/os/testsuites/testsuits-for-oskernel/libc-test/src/common/runtest.c:23
   1200005d8:	14000325 	lu12i.w     	$a1, 25(0x19)
   1200005dc:	02800c04 	addi.w      	$a0, $zero, 3(0x3)
   1200005e0:	541b0c00 	bl          	6924(0x1b0c)	# 1200020ec <t_setrlim>
/home/airxs/user/os/testsuites/testsuits-for-oskernel/libc-test/src/common/runtest.c:24
   1200005e4:	28ff22cc 	ld.d        	$t0, $fp, -56(0xfc8)
   1200005e8:	2800018c 	ld.b        	$t0, $t0, 0
   1200005ec:	40001d80 	beqz        	$t0, 28(0x1c)	# 120000608 <start+0x60>
/home/airxs/user/os/testsuites/testsuits-for-oskernel/libc-test/src/common/runtest.c:25
   1200005f0:	28ff02cc 	ld.d        	$t0, $fp, -64(0xfc0)
   1200005f4:	02ffe18c 	addi.d      	$t0, $t0, -8(0xff8)
   1200005f8:	29ff02cc 	st.d        	$t0, $fp, -64(0xfc0)
/home/airxs/user/os/testsuites/testsuits-for-oskernel/libc-test/src/common/runtest.c:26
   1200005fc:	28ff02cc 	ld.d        	$t0, $fp, -64(0xfc0)
   120000600:	28ff22cd 	ld.d        	$t1, $fp, -56(0xfc8)
   120000604:	29c0018d 	st.d        	$t1, $t0, 0
/home/airxs/user/os/testsuites/testsuits-for-oskernel/libc-test/src/common/runtest.c:28
   120000608:	28ff02cc 	ld.d        	$t0, $fp, -64(0xfc0)
   12000060c:	28c0018c 	ld.d        	$t0, $t0, 0
   120000610:	28ff02c5 	ld.d        	$a1, $fp, -64(0xfc0)
   120000614:	00150184 	move        	$a0, $t0
   120000618:	547a9c00 	bl          	31388(0x7a9c)	# 1200080b4 <execv>
/home/airxs/user/os/testsuites/testsuits-for-oskernel/libc-test/src/common/runtest.c:29
   12000061c:	28ff02cc 	ld.d        	$t0, $fp, -64(0xfc0)
   120000620:	28c00197 	ld.d        	$s0, $t0, 0
   120000624:	5443b000 	bl          	17328(0x43b0)	# 1200049d4 <__errno_location>
   120000628:	0015008c 	move        	$t0, $a0
   12000062c:	2880018c 	ld.w        	$t0, $t0, 0
   120000630:	00150184 	move        	$a0, $t0
   120000634:	5443f000 	bl          	17392(0x43f0)	# 120004a24 <strerror>
   120000638:	0015008c 	move        	$t0, $a0
   12000063c:	00150186 	move        	$a2, $t0
   120000640:	001502e5 	move        	$a1, $s0
   120000644:	1c000204 	pcaddu12i   	$a0, 16(0x10)
   120000648:	02e7b084 	addi.d      	$a0, $a0, -1556(0x9ec)
   12000064c:	54101800 	bl          	4120(0x1018)	# 120001664 <t_printf>
/home/airxs/user/os/testsuites/testsuits-for-oskernel/libc-test/src/common/runtest.c:30
   120000650:	02800404 	addi.w      	$a0, $zero, 1(0x1)
   120000654:	57fbafff 	bl          	-1108(0xffffbac)	# 120000200 <exit>
/home/airxs/user/os/testsuites/testsuits-for-oskernel/libc-test/src/common/runtest.c:32
   120000658:	28bf72cc 	ld.w        	$t0, $fp, -36(0xfdc)
/home/airxs/user/os/testsuites/testsuits-for-oskernel/libc-test/src/common/runtest.c:33
   12000065c:	00150184 	move        	$a0, $t0
   120000660:	28c0e061 	ld.d        	$ra, $sp, 56(0x38)
   120000664:	28c0c076 	ld.d        	$fp, $sp, 48(0x30)
   120000668:	28c0a077 	ld.d        	$s0, $sp, 40(0x28)
   12000066c:	02c10063 	addi.d      	$sp, $sp, 64(0x40)
   120000670:	4c000020 	jirl        	$zero, $ra, 0

0000000120000674 <usage>:
usage():
/home/airxs/user/os/testsuites/testsuits-for-oskernel/libc-test/src/common/runtest.c:36
   120000674:	02ff8063 	addi.d      	$sp, $sp, -32(0xfe0)
   120000678:	29c06061 	st.d        	$ra, $sp, 24(0x18)
   12000067c:	29c04076 	st.d        	$fp, $sp, 16(0x10)
   120000680:	02c08076 	addi.d      	$fp, $sp, 32(0x20)
   120000684:	29ffa2c4 	st.d        	$a0, $fp, -24(0xfe8)
/home/airxs/user/os/testsuites/testsuits-for-oskernel/libc-test/src/common/runtest.c:37
   120000688:	28ffa2cc 	ld.d        	$t0, $fp, -24(0xfe8)
   12000068c:	28c0018c 	ld.d        	$t0, $t0, 0
   120000690:	00150185 	move        	$a1, $t0
   120000694:	1c000204 	pcaddu12i   	$a0, 16(0x10)
   120000698:	02e73084 	addi.d      	$a0, $a0, -1588(0x9cc)
   12000069c:	540fc800 	bl          	4040(0xfc8)	# 120001664 <t_printf>
/home/airxs/user/os/testsuites/testsuits-for-oskernel/libc-test/src/common/runtest.c:38
   1200006a0:	02bffc04 	addi.w      	$a0, $zero, -1(0xfff)
   1200006a4:	57fb5fff 	bl          	-1188(0xffffb5c)	# 120000200 <exit>

00000001200006a8 <main>:
main():
/home/airxs/user/os/testsuites/testsuits-for-oskernel/libc-test/src/common/runtest.c:42
   1200006a8:	02fc4063 	addi.d      	$sp, $sp, -240(0xf10)
   1200006ac:	29c3a061 	st.d        	$ra, $sp, 232(0xe8)
   1200006b0:	29c38076 	st.d        	$fp, $sp, 224(0xe0)
   1200006b4:	29c36077 	st.d        	$s0, $sp, 216(0xd8)
   1200006b8:	02c3c076 	addi.d      	$fp, $sp, 240(0xf0)
   1200006bc:	0015008c 	move        	$t0, $a0
   1200006c0:	29fc42c5 	st.d        	$a1, $fp, -240(0xf10)
   1200006c4:	0040818c 	slli.w      	$t0, $t0, 0x0
   1200006c8:	29bc72cc 	st.w        	$t0, $fp, -228(0xf1c)
/home/airxs/user/os/testsuites/testsuits-for-oskernel/libc-test/src/common/runtest.c:43
   1200006cc:	1c00020c 	pcaddu12i   	$t0, 16(0x10)
   1200006d0:	02e7918c 	addi.d      	$t0, $t0, -1564(0x9e4)
   1200006d4:	29ff62cc 	st.d        	$t0, $fp, -40(0xfd8)
/home/airxs/user/os/testsuites/testsuits-for-oskernel/libc-test/src/common/runtest.c:44
   1200006d8:	0280140c 	addi.w      	$t0, $zero, 5(0x5)
   1200006dc:	29bf52cc 	st.w        	$t0, $fp, -44(0xfd4)
/home/airxs/user/os/testsuites/testsuits-for-oskernel/libc-test/src/common/runtest.c:45
   1200006e0:	29bf42c0 	st.w        	$zero, $fp, -48(0xfd0)
/home/airxs/user/os/testsuites/testsuits-for-oskernel/libc-test/src/common/runtest.c:51
   1200006e4:	50006000 	b           	96(0x60)	# 120000744 <main+0x9c>
/home/airxs/user/os/testsuites/testsuits-for-oskernel/libc-test/src/common/runtest.c:52
   1200006e8:	28bf22cc 	ld.w        	$t0, $fp, -56(0xfc8)
   1200006ec:	0015018d 	move        	$t1, $t0
   1200006f0:	0281d00c 	addi.w      	$t0, $zero, 116(0x74)
   1200006f4:	580029ac 	beq         	$t1, $t0, 40(0x28)	# 12000071c <main+0x74>
   1200006f8:	28bf22cc 	ld.w        	$t0, $fp, -56(0xfc8)
   1200006fc:	0015018d 	move        	$t1, $t0
   120000700:	0281dc0c 	addi.w      	$t0, $zero, 119(0x77)
   120000704:	5c0039ac 	bne         	$t1, $t0, 56(0x38)	# 12000073c <main+0x94>
/home/airxs/user/os/testsuites/testsuits-for-oskernel/libc-test/src/common/runtest.c:54
   120000708:	1c00030c 	pcaddu12i   	$t0, 24(0x18)
   12000070c:	28e9e18c 	ld.d        	$t0, $t0, -1416(0xa78)
   120000710:	28c0018c 	ld.d        	$t0, $t0, 0
   120000714:	29ff62cc 	st.d        	$t0, $fp, -40(0xfd8)
/home/airxs/user/os/testsuites/testsuits-for-oskernel/libc-test/src/common/runtest.c:55
   120000718:	50002c00 	b           	44(0x2c)	# 120000744 <main+0x9c>
/home/airxs/user/os/testsuites/testsuits-for-oskernel/libc-test/src/common/runtest.c:57
   12000071c:	1c00030c 	pcaddu12i   	$t0, 24(0x18)
   120000720:	28e9918c 	ld.d        	$t0, $t0, -1436(0xa64)
   120000724:	28c0018c 	ld.d        	$t0, $t0, 0
   120000728:	00150184 	move        	$a0, $t0
   12000072c:	54854400 	bl          	34116(0x8544)	# 120008c70 <atoi>
   120000730:	0015008c 	move        	$t0, $a0
   120000734:	29bf52cc 	st.w        	$t0, $fp, -44(0xfd4)
/home/airxs/user/os/testsuites/testsuits-for-oskernel/libc-test/src/common/runtest.c:58
   120000738:	50000c00 	b           	12(0xc)	# 120000744 <main+0x9c>
/home/airxs/user/os/testsuites/testsuits-for-oskernel/libc-test/src/common/runtest.c:60
   12000073c:	28fc42c4 	ld.d        	$a0, $fp, -240(0xf10)
   120000740:	57ff37ff 	bl          	-204(0xfffff34)	# 120000674 <usage>
/home/airxs/user/os/testsuites/testsuits-for-oskernel/libc-test/src/common/runtest.c:51
   120000744:	28bc72cc 	ld.w        	$t0, $fp, -228(0xf1c)
   120000748:	1c000206 	pcaddu12i   	$a2, 16(0x10)
   12000074c:	02e5c0c6 	addi.d      	$a2, $a2, -1680(0x970)
   120000750:	28fc42c5 	ld.d        	$a1, $fp, -240(0xf10)
   120000754:	00150184 	move        	$a0, $t0
   120000758:	54713800 	bl          	28984(0x7138)	# 120007890 <getopt>
   12000075c:	0015008c 	move        	$t0, $a0
   120000760:	29bf22cc 	st.w        	$t0, $fp, -56(0xfc8)
   120000764:	28bf22cc 	ld.w        	$t0, $fp, -56(0xfc8)
   120000768:	0015018d 	move        	$t1, $t0
   12000076c:	02bffc0c 	addi.w      	$t0, $zero, -1(0xfff)
   120000770:	5fff79ac 	bne         	$t1, $t0, -136(0x3ff78)	# 1200006e8 <main+0x40>
/home/airxs/user/os/testsuites/testsuits-for-oskernel/libc-test/src/common/runtest.c:63
   120000774:	1c00030c 	pcaddu12i   	$t0, 24(0x18)
   120000778:	28e8d18c 	ld.d        	$t0, $t0, -1484(0xa34)
   12000077c:	2880018d 	ld.w        	$t1, $t0, 0
   120000780:	28bc72cc 	ld.w        	$t0, $fp, -228(0xf1c)
   120000784:	60000dac 	blt         	$t1, $t0, 12(0xc)	# 120000790 <main+0xe8>
/home/airxs/user/os/testsuites/testsuits-for-oskernel/libc-test/src/common/runtest.c:64
   120000788:	28fc42c4 	ld.d        	$a0, $fp, -240(0xf10)
   12000078c:	57feebff 	bl          	-280(0xffffee8)	# 120000674 <usage>
/home/airxs/user/os/testsuites/testsuits-for-oskernel/libc-test/src/common/runtest.c:65
   120000790:	1c00030c 	pcaddu12i   	$t0, 24(0x18)
   120000794:	28e8618c 	ld.d        	$t0, $t0, -1512(0xa18)
   120000798:	2880018c 	ld.w        	$t0, $t0, 0
   12000079c:	00410d8c 	slli.d      	$t0, $t0, 0x3
   1200007a0:	28fc42cd 	ld.d        	$t1, $fp, -240(0xf10)
   1200007a4:	0010b1ac 	add.d       	$t0, $t1, $t0
   1200007a8:	29fc42cc 	st.d        	$t0, $fp, -240(0xf10)
/home/airxs/user/os/testsuites/testsuits-for-oskernel/libc-test/src/common/runtest.c:66
   1200007ac:	02fca2cc 	addi.d      	$t0, $fp, -216(0xf28)
   1200007b0:	00150184 	move        	$a0, $t0
   1200007b4:	547bf000 	bl          	31728(0x7bf0)	# 1200083a4 <sigemptyset>
/home/airxs/user/os/testsuites/testsuits-for-oskernel/libc-test/src/common/runtest.c:67
   1200007b8:	02fca2cc 	addi.d      	$t0, $fp, -216(0xf28)
   1200007bc:	02804405 	addi.w      	$a1, $zero, 17(0x11)
   1200007c0:	00150184 	move        	$a0, $t0
   1200007c4:	547b8000 	bl          	31616(0x7b80)	# 120008344 <sigaddset>
/home/airxs/user/os/testsuites/testsuits-for-oskernel/libc-test/src/common/runtest.c:68
   1200007c8:	02fca2cc 	addi.d      	$t0, $fp, -216(0xf28)
   1200007cc:	00150006 	move        	$a2, $zero
   1200007d0:	00150185 	move        	$a1, $t0
   1200007d4:	00150004 	move        	$a0, $zero
   1200007d8:	547c4c00 	bl          	31820(0x7c4c)	# 120008424 <sigprocmask>
/home/airxs/user/os/testsuites/testsuits-for-oskernel/libc-test/src/common/runtest.c:69
   1200007dc:	1c000005 	pcaddu12i   	$a1, 0
   1200007e0:	02f690a5 	addi.d      	$a1, $a1, -604(0xda4)
   1200007e4:	02804404 	addi.w      	$a0, $zero, 17(0x11)
   1200007e8:	547bcc00 	bl          	31692(0x7bcc)	# 1200083b4 <signal>
/home/airxs/user/os/testsuites/testsuits-for-oskernel/libc-test/src/common/runtest.c:70
   1200007ec:	28fc42cc 	ld.d        	$t0, $fp, -240(0xf10)
   1200007f0:	28c0018c 	ld.d        	$t0, $t0, 0
   1200007f4:	00150186 	move        	$a2, $t0
   1200007f8:	28ff62c5 	ld.d        	$a1, $fp, -40(0xfd8)
   1200007fc:	1c000204 	pcaddu12i   	$a0, 16(0x10)
   120000800:	02e31084 	addi.d      	$a0, $a0, -1852(0x8c4)
   120000804:	540e6000 	bl          	3680(0xe60)	# 120001664 <t_printf>
/home/airxs/user/os/testsuites/testsuits-for-oskernel/libc-test/src/common/runtest.c:71
   120000808:	28fc42c5 	ld.d        	$a1, $fp, -240(0xf10)
   12000080c:	28ff62c4 	ld.d        	$a0, $fp, -40(0xfd8)
   120000810:	57fd9bff 	bl          	-616(0xffffd98)	# 1200005a8 <start>
   120000814:	0015008c 	move        	$t0, $a0
   120000818:	29bf12cc 	st.w        	$t0, $fp, -60(0xfc4)
/home/airxs/user/os/testsuites/testsuits-for-oskernel/libc-test/src/common/runtest.c:72
   12000081c:	29bf32c0 	st.w        	$zero, $fp, -52(0xfcc)
/home/airxs/user/os/testsuites/testsuits-for-oskernel/libc-test/src/common/runtest.c:73
   120000820:	28bf12cc 	ld.w        	$t0, $fp, -60(0xfc4)
   120000824:	0015018d 	move        	$t1, $t0
   120000828:	02bffc0c 	addi.w      	$t0, $zero, -1(0xfff)
   12000082c:	5c0059ac 	bne         	$t1, $t0, 88(0x58)	# 120000884 <main+0x1dc>
/home/airxs/user/os/testsuites/testsuits-for-oskernel/libc-test/src/common/runtest.c:74
   120000830:	28fc42cc 	ld.d        	$t0, $fp, -240(0xf10)
   120000834:	28c00197 	ld.d        	$s0, $t0, 0
   120000838:	54419c00 	bl          	16796(0x419c)	# 1200049d4 <__errno_location>
   12000083c:	0015008c 	move        	$t0, $a0
   120000840:	2880018c 	ld.w        	$t0, $t0, 0
   120000844:	00150184 	move        	$a0, $t0
   120000848:	5441dc00 	bl          	16860(0x41dc)	# 120004a24 <strerror>
   12000084c:	0015008c 	move        	$t0, $a0
   120000850:	00150186 	move        	$a2, $t0
   120000854:	001502e5 	move        	$a1, $s0
   120000858:	1c000204 	pcaddu12i   	$a0, 16(0x10)
   12000085c:	02e24084 	addi.d      	$a0, $a0, -1904(0x890)
   120000860:	540e0400 	bl          	3588(0xe04)	# 120001664 <t_printf>
/home/airxs/user/os/testsuites/testsuits-for-oskernel/libc-test/src/common/runtest.c:75
   120000864:	28fc42cc 	ld.d        	$t0, $fp, -240(0xf10)
   120000868:	28c0018c 	ld.d        	$t0, $t0, 0
   12000086c:	00150185 	move        	$a1, $t0
   120000870:	1c000204 	pcaddu12i   	$a0, 16(0x10)
   120000874:	02e2a084 	addi.d      	$a0, $a0, -1880(0x8a8)
   120000878:	540dec00 	bl          	3564(0xdec)	# 120001664 <t_printf>
/home/airxs/user/os/testsuites/testsuits-for-oskernel/libc-test/src/common/runtest.c:76
   12000087c:	0280040c 	addi.w      	$t0, $zero, 1(0x1)
   120000880:	29bf32cc 	st.w        	$t0, $fp, -52(0xfcc)
/home/airxs/user/os/testsuites/testsuits-for-oskernel/libc-test/src/common/runtest.c:78
   120000884:	29fec2c0 	st.d        	$zero, $fp, -80(0xfb0)
   120000888:	29fee2c0 	st.d        	$zero, $fp, -72(0xfb8)
   12000088c:	28bf52cc 	ld.w        	$t0, $fp, -44(0xfd4)
   120000890:	29fec2cc 	st.d        	$t0, $fp, -80(0xfb0)
   120000894:	02fec2cd 	addi.d      	$t1, $fp, -80(0xfb0)
   120000898:	02fca2cc 	addi.d      	$t0, $fp, -216(0xf28)
   12000089c:	001501a6 	move        	$a2, $t1
   1200008a0:	00150005 	move        	$a1, $zero
   1200008a4:	00150184 	move        	$a0, $t0
   1200008a8:	547bb800 	bl          	31672(0x7bb8)	# 120008460 <sigtimedwait>
   1200008ac:	0015008c 	move        	$t0, $a0
   1200008b0:	0015018d 	move        	$t1, $t0
   1200008b4:	02bffc0c 	addi.w      	$t0, $zero, -1(0xfff)
   1200008b8:	5c00c1ac 	bne         	$t1, $t0, 192(0xc0)	# 120000978 <main+0x2d0>
/home/airxs/user/os/testsuites/testsuits-for-oskernel/libc-test/src/common/runtest.c:79
   1200008bc:	54411800 	bl          	16664(0x4118)	# 1200049d4 <__errno_location>
   1200008c0:	0015008c 	move        	$t0, $a0
   1200008c4:	2880018c 	ld.w        	$t0, $t0, 0
   1200008c8:	0015018d 	move        	$t1, $t0
   1200008cc:	02802c0c 	addi.w      	$t0, $zero, 11(0xb)
   1200008d0:	5c0011ac 	bne         	$t1, $t0, 16(0x10)	# 1200008e0 <main+0x238>
/home/airxs/user/os/testsuites/testsuits-for-oskernel/libc-test/src/common/runtest.c:80
   1200008d4:	0280040c 	addi.w      	$t0, $zero, 1(0x1)
   1200008d8:	29bf42cc 	st.w        	$t0, $fp, -48(0xfd0)
   1200008dc:	50004000 	b           	64(0x40)	# 12000091c <main+0x274>
/home/airxs/user/os/testsuites/testsuits-for-oskernel/libc-test/src/common/runtest.c:82
   1200008e0:	28fc42cc 	ld.d        	$t0, $fp, -240(0xf10)
   1200008e4:	28c00197 	ld.d        	$s0, $t0, 0
   1200008e8:	5440ec00 	bl          	16620(0x40ec)	# 1200049d4 <__errno_location>
   1200008ec:	0015008c 	move        	$t0, $a0
   1200008f0:	2880018c 	ld.w        	$t0, $t0, 0
   1200008f4:	00150184 	move        	$a0, $t0
   1200008f8:	54412c00 	bl          	16684(0x412c)	# 120004a24 <strerror>
   1200008fc:	0015008c 	move        	$t0, $a0
   120000900:	00150186 	move        	$a2, $t0
   120000904:	001502e5 	move        	$a1, $s0
   120000908:	1c000204 	pcaddu12i   	$a0, 16(0x10)
   12000090c:	02e0a084 	addi.d      	$a0, $a0, -2008(0x828)
   120000910:	540d5400 	bl          	3412(0xd54)	# 120001664 <t_printf>
/home/airxs/user/os/testsuites/testsuits-for-oskernel/libc-test/src/common/runtest.c:83
   120000914:	0280040c 	addi.w      	$t0, $zero, 1(0x1)
   120000918:	29bf32cc 	st.w        	$t0, $fp, -52(0xfcc)
/home/airxs/user/os/testsuites/testsuits-for-oskernel/libc-test/src/common/runtest.c:85
   12000091c:	28bf12cc 	ld.w        	$t0, $fp, -60(0xfc4)
   120000920:	02802405 	addi.w      	$a1, $zero, 9(0x9)
   120000924:	00150184 	move        	$a0, $t0
   120000928:	5479f800 	bl          	31224(0x79f8)	# 120008320 <kill>
   12000092c:	0015008c 	move        	$t0, $a0
   120000930:	0015018d 	move        	$t1, $t0
   120000934:	02bffc0c 	addi.w      	$t0, $zero, -1(0xfff)
   120000938:	5c0041ac 	bne         	$t1, $t0, 64(0x40)	# 120000978 <main+0x2d0>
/home/airxs/user/os/testsuites/testsuits-for-oskernel/libc-test/src/common/runtest.c:86
   12000093c:	28fc42cc 	ld.d        	$t0, $fp, -240(0xf10)
   120000940:	28c00197 	ld.d        	$s0, $t0, 0
   120000944:	54409000 	bl          	16528(0x4090)	# 1200049d4 <__errno_location>
   120000948:	0015008c 	move        	$t0, $a0
   12000094c:	2880018c 	ld.w        	$t0, $t0, 0
   120000950:	00150184 	move        	$a0, $t0
   120000954:	5440d000 	bl          	16592(0x40d0)	# 120004a24 <strerror>
   120000958:	0015008c 	move        	$t0, $a0
   12000095c:	00150186 	move        	$a2, $t0
   120000960:	001502e5 	move        	$a1, $s0
   120000964:	1c000204 	pcaddu12i   	$a0, 16(0x10)
   120000968:	02e01084 	addi.d      	$a0, $a0, -2044(0x804)
   12000096c:	540cf800 	bl          	3320(0xcf8)	# 120001664 <t_printf>
/home/airxs/user/os/testsuites/testsuits-for-oskernel/libc-test/src/common/runtest.c:87
   120000970:	0280040c 	addi.w      	$t0, $zero, 1(0x1)
   120000974:	29bf32cc 	st.w        	$t0, $fp, -52(0xfcc)
/home/airxs/user/os/testsuites/testsuits-for-oskernel/libc-test/src/common/runtest.c:90
   120000978:	02feb2cd 	addi.d      	$t1, $fp, -84(0xfac)
   12000097c:	28bf12cc 	ld.w        	$t0, $fp, -60(0xfc4)
   120000980:	00150006 	move        	$a2, $zero
   120000984:	001501a5 	move        	$a1, $t1
   120000988:	00150184 	move        	$a0, $t0
   12000098c:	5478fc00 	bl          	30972(0x78fc)	# 120008288 <waitpid>
   120000990:	0015008c 	move        	$t0, $a0
   120000994:	0015018d 	move        	$t1, $t0
   120000998:	28bf12cc 	ld.w        	$t0, $fp, -60(0xfc4)
   12000099c:	5800598d 	beq         	$t0, $t1, 88(0x58)	# 1200009f4 <main+0x34c>
/home/airxs/user/os/testsuites/testsuits-for-oskernel/libc-test/src/common/runtest.c:91
   1200009a0:	28fc42cc 	ld.d        	$t0, $fp, -240(0xf10)
   1200009a4:	28c00197 	ld.d        	$s0, $t0, 0
   1200009a8:	54402c00 	bl          	16428(0x402c)	# 1200049d4 <__errno_location>
   1200009ac:	0015008c 	move        	$t0, $a0
   1200009b0:	2880018c 	ld.w        	$t0, $t0, 0
   1200009b4:	00150184 	move        	$a0, $t0
   1200009b8:	54406c00 	bl          	16492(0x406c)	# 120004a24 <strerror>
   1200009bc:	0015008c 	move        	$t0, $a0
   1200009c0:	00150186 	move        	$a2, $t0
   1200009c4:	001502e5 	move        	$a1, $s0
   1200009c8:	1c0001e4 	pcaddu12i   	$a0, 15(0xf)
   1200009cc:	02df4084 	addi.d      	$a0, $a0, 2000(0x7d0)
   1200009d0:	540c9400 	bl          	3220(0xc94)	# 120001664 <t_printf>
/home/airxs/user/os/testsuites/testsuits-for-oskernel/libc-test/src/common/runtest.c:92
   1200009d4:	28fc42cc 	ld.d        	$t0, $fp, -240(0xf10)
   1200009d8:	28c0018c 	ld.d        	$t0, $t0, 0
   1200009dc:	00150185 	move        	$a1, $t0
   1200009e0:	1c0001e4 	pcaddu12i   	$a0, 15(0xf)
   1200009e4:	02dce084 	addi.d      	$a0, $a0, 1848(0x738)
   1200009e8:	540c7c00 	bl          	3196(0xc7c)	# 120001664 <t_printf>
/home/airxs/user/os/testsuites/testsuits-for-oskernel/libc-test/src/common/runtest.c:93
   1200009ec:	0280040c 	addi.w      	$t0, $zero, 1(0x1)
   1200009f0:	29bf32cc 	st.w        	$t0, $fp, -52(0xfcc)
/home/airxs/user/os/testsuites/testsuits-for-oskernel/libc-test/src/common/runtest.c:95
   1200009f4:	28beb2cc 	ld.w        	$t0, $fp, -84(0xfac)
   1200009f8:	0341fd8c 	andi        	$t0, $t0, 0x7f
   1200009fc:	44004980 	bnez        	$t0, 72(0x48)	# 120000a44 <main+0x39c>
/home/airxs/user/os/testsuites/testsuits-for-oskernel/libc-test/src/common/runtest.c:96
   120000a00:	28beb2cc 	ld.w        	$t0, $fp, -84(0xfac)
   120000a04:	0048a18c 	srai.w      	$t0, $t0, 0x8
   120000a08:	0343fd8c 	andi        	$t0, $t0, 0xff
   120000a0c:	4000e580 	beqz        	$t0, 228(0xe4)	# 120000af0 <main+0x448>
/home/airxs/user/os/testsuites/testsuits-for-oskernel/libc-test/src/common/runtest.c:97
   120000a10:	28fc42cc 	ld.d        	$t0, $fp, -240(0xf10)
   120000a14:	28c0018d 	ld.d        	$t1, $t0, 0
   120000a18:	28beb2cc 	ld.w        	$t0, $fp, -84(0xfac)
   120000a1c:	0048a18c 	srai.w      	$t0, $t0, 0x8
   120000a20:	0343fd8c 	andi        	$t0, $t0, 0xff
   120000a24:	00150186 	move        	$a2, $t0
   120000a28:	001501a5 	move        	$a1, $t1
   120000a2c:	1c0001e4 	pcaddu12i   	$a0, 15(0xf)
   120000a30:	02de7084 	addi.d      	$a0, $a0, 1948(0x79c)
   120000a34:	540c3000 	bl          	3120(0xc30)	# 120001664 <t_printf>
/home/airxs/user/os/testsuites/testsuits-for-oskernel/libc-test/src/common/runtest.c:98
   120000a38:	0280040c 	addi.w      	$t0, $zero, 1(0x1)
   120000a3c:	29bf32cc 	st.w        	$t0, $fp, -52(0xfcc)
   120000a40:	5000b000 	b           	176(0xb0)	# 120000af0 <main+0x448>
/home/airxs/user/os/testsuites/testsuits-for-oskernel/libc-test/src/common/runtest.c:100
   120000a44:	28bf42cc 	ld.w        	$t0, $fp, -48(0xfd0)
   120000a48:	40002980 	beqz        	$t0, 40(0x28)	# 120000a70 <main+0x3c8>
/home/airxs/user/os/testsuites/testsuits-for-oskernel/libc-test/src/common/runtest.c:101
   120000a4c:	28fc42cc 	ld.d        	$t0, $fp, -240(0xf10)
   120000a50:	28c0018c 	ld.d        	$t0, $t0, 0
   120000a54:	00150185 	move        	$a1, $t0
   120000a58:	1c0001e4 	pcaddu12i   	$a0, 15(0xf)
   120000a5c:	02de2084 	addi.d      	$a0, $a0, 1928(0x788)
   120000a60:	540c0400 	bl          	3076(0xc04)	# 120001664 <t_printf>
/home/airxs/user/os/testsuites/testsuits-for-oskernel/libc-test/src/common/runtest.c:102
   120000a64:	0280040c 	addi.w      	$t0, $zero, 1(0x1)
   120000a68:	29bf32cc 	st.w        	$t0, $fp, -52(0xfcc)
   120000a6c:	50008400 	b           	132(0x84)	# 120000af0 <main+0x448>
/home/airxs/user/os/testsuites/testsuits-for-oskernel/libc-test/src/common/runtest.c:103
   120000a70:	28beb2cc 	ld.w        	$t0, $fp, -84(0xfac)
   120000a74:	0015018d 	move        	$t1, $t0
   120000a78:	140001ec 	lu12i.w     	$t0, 15(0xf)
   120000a7c:	03bffd8c 	ori         	$t0, $t0, 0xfff
   120000a80:	0014b1ac 	and         	$t0, $t1, $t0
   120000a84:	02bffd8c 	addi.w      	$t0, $t0, -1(0xfff)
   120000a88:	0015018d 	move        	$t1, $t0
   120000a8c:	0283f80c 	addi.w      	$t0, $zero, 254(0xfe)
   120000a90:	6800418d 	bltu        	$t0, $t1, 64(0x40)	# 120000ad0 <main+0x428>
/home/airxs/user/os/testsuites/testsuits-for-oskernel/libc-test/src/common/runtest.c:104
   120000a94:	28fc42cc 	ld.d        	$t0, $fp, -240(0xf10)
   120000a98:	28c00197 	ld.d        	$s0, $t0, 0
   120000a9c:	28beb2cc 	ld.w        	$t0, $fp, -84(0xfac)
   120000aa0:	0341fd8c 	andi        	$t0, $t0, 0x7f
   120000aa4:	00150184 	move        	$a0, $t0
   120000aa8:	548a2800 	bl          	35368(0x8a28)	# 1200094d0 <strsignal>
   120000aac:	0015008c 	move        	$t0, $a0
   120000ab0:	00150186 	move        	$a2, $t0
   120000ab4:	001502e5 	move        	$a1, $s0
   120000ab8:	1c0001e4 	pcaddu12i   	$a0, 15(0xf)
   120000abc:	02dd0084 	addi.d      	$a0, $a0, 1856(0x740)
   120000ac0:	540ba400 	bl          	2980(0xba4)	# 120001664 <t_printf>
/home/airxs/user/os/testsuites/testsuits-for-oskernel/libc-test/src/common/runtest.c:105
   120000ac4:	0280040c 	addi.w      	$t0, $zero, 1(0x1)
   120000ac8:	29bf32cc 	st.w        	$t0, $fp, -52(0xfcc)
   120000acc:	50002400 	b           	36(0x24)	# 120000af0 <main+0x448>
/home/airxs/user/os/testsuites/testsuits-for-oskernel/libc-test/src/common/runtest.c:107
   120000ad0:	28fc42cc 	ld.d        	$t0, $fp, -240(0xf10)
   120000ad4:	28c0018c 	ld.d        	$t0, $t0, 0
   120000ad8:	00150185 	move        	$a1, $t0
   120000adc:	1c0001e4 	pcaddu12i   	$a0, 15(0xf)
   120000ae0:	02dcd084 	addi.d      	$a0, $a0, 1844(0x734)
   120000ae4:	540b8000 	bl          	2944(0xb80)	# 120001664 <t_printf>
/home/airxs/user/os/testsuites/testsuits-for-oskernel/libc-test/src/common/runtest.c:108
   120000ae8:	0280040c 	addi.w      	$t0, $zero, 1(0x1)
   120000aec:	29bf32cc 	st.w        	$t0, $fp, -52(0xfcc)
/home/airxs/user/os/testsuites/testsuits-for-oskernel/libc-test/src/common/runtest.c:112
   120000af0:	28bf32cc 	ld.w        	$t0, $fp, -52(0xfcc)
   120000af4:	44001180 	bnez        	$t0, 16(0x10)	# 120000b04 <main+0x45c>
/home/airxs/user/os/testsuites/testsuits-for-oskernel/libc-test/src/common/runtest.c:113
   120000af8:	1c0001e4 	pcaddu12i   	$a0, 15(0xf)
   120000afc:	02dcc084 	addi.d      	$a0, $a0, 1840(0x730)
   120000b00:	540b6400 	bl          	2916(0xb64)	# 120001664 <t_printf>
/home/airxs/user/os/testsuites/testsuits-for-oskernel/libc-test/src/common/runtest.c:115
   120000b04:	28fc42cc 	ld.d        	$t0, $fp, -240(0xf10)
   120000b08:	28c0018c 	ld.d        	$t0, $t0, 0
   120000b0c:	00150186 	move        	$a2, $t0
   120000b10:	28ff62c5 	ld.d        	$a1, $fp, -40(0xfd8)
   120000b14:	1c0001e4 	pcaddu12i   	$a0, 15(0xf)
   120000b18:	02dc7084 	addi.d      	$a0, $a0, 1820(0x71c)
   120000b1c:	540b4800 	bl          	2888(0xb48)	# 120001664 <t_printf>
/home/airxs/user/os/testsuites/testsuits-for-oskernel/libc-test/src/common/runtest.c:116
   120000b20:	0280040c 	addi.w      	$t0, $zero, 1(0x1)
/home/airxs/user/os/testsuites/testsuits-for-oskernel/libc-test/src/common/runtest.c:117
   120000b24:	00150184 	move        	$a0, $t0
   120000b28:	28c3a061 	ld.d        	$ra, $sp, 232(0xe8)
   120000b2c:	28c38076 	ld.d        	$fp, $sp, 224(0xe0)
   120000b30:	28c36077 	ld.d        	$s0, $sp, 216(0xd8)
   120000b34:	02c3c063 	addi.d      	$sp, $sp, 240(0xf0)
   120000b38:	4c000020 	jirl        	$zero, $ra, 0

0000000120000b3c <t_fdfill>:
t_fdfill():
/home/airxs/user/os/testsuites/testsuits-for-oskernel/libc-test/src/common/fdfill.c:7
   120000b3c:	02ff8063 	addi.d      	$sp, $sp, -32(0xfe0)
   120000b40:	29c06061 	st.d        	$ra, $sp, 24(0x18)
   120000b44:	29c04076 	st.d        	$fp, $sp, 16(0x10)
   120000b48:	02c08076 	addi.d      	$fp, $sp, 32(0x20)
/home/airxs/user/os/testsuites/testsuits-for-oskernel/libc-test/src/common/fdfill.c:8
   120000b4c:	0280040c 	addi.w      	$t0, $zero, 1(0x1)
   120000b50:	29bfb2cc 	st.w        	$t0, $fp, -20(0xfec)
/home/airxs/user/os/testsuites/testsuits-for-oskernel/libc-test/src/common/fdfill.c:9
   120000b54:	28bfb2cc 	ld.w        	$t0, $fp, -20(0xfec)
   120000b58:	00150184 	move        	$a0, $t0
   120000b5c:	54927800 	bl          	37496(0x9278)	# 120009dd4 <dup>
   120000b60:	0015008c 	move        	$t0, $a0
   120000b64:	0015018d 	move        	$t1, $t0
   120000b68:	02bffc0c 	addi.w      	$t0, $zero, -1(0xfff)
   120000b6c:	5c0035ac 	bne         	$t1, $t0, 52(0x34)	# 120000ba0 <t_fdfill+0x64>
/home/airxs/user/os/testsuites/testsuits-for-oskernel/libc-test/src/common/fdfill.c:10
   120000b70:	543e6400 	bl          	15972(0x3e64)	# 1200049d4 <__errno_location>
   120000b74:	0015008c 	move        	$t0, $a0
   120000b78:	2880018c 	ld.w        	$t0, $t0, 0
   120000b7c:	0015018d 	move        	$t1, $t0
   120000b80:	0280600c 	addi.w      	$t0, $zero, 24(0x18)
   120000b84:	580041ac 	beq         	$t1, $t0, 64(0x40)	# 120000bc4 <t_fdfill+0x88>
/home/airxs/user/os/testsuites/testsuits-for-oskernel/libc-test/src/common/fdfill.c:12
   120000b88:	00150005 	move        	$a1, $zero
   120000b8c:	1c0001e4 	pcaddu12i   	$a0, 15(0xf)
   120000b90:	02db3084 	addi.d      	$a0, $a0, 1740(0x6cc)
   120000b94:	543f0000 	bl          	16128(0x3f00)	# 120004a94 <open>
   120000b98:	0015008c 	move        	$t0, $a0
   120000b9c:	29bfb2cc 	st.w        	$t0, $fp, -20(0xfec)
/home/airxs/user/os/testsuites/testsuits-for-oskernel/libc-test/src/common/fdfill.c:14
   120000ba0:	03400000 	andi        	$zero, $zero, 0x0
/home/airxs/user/os/testsuites/testsuits-for-oskernel/libc-test/src/common/fdfill.c:14 (discriminator 1)
   120000ba4:	28bfb2cc 	ld.w        	$t0, $fp, -20(0xfec)
   120000ba8:	00150184 	move        	$a0, $t0
   120000bac:	54922800 	bl          	37416(0x9228)	# 120009dd4 <dup>
   120000bb0:	0015008c 	move        	$t0, $a0
   120000bb4:	0015018d 	move        	$t1, $t0
   120000bb8:	02bffc0c 	addi.w      	$t0, $zero, -1(0xfff)
   120000bbc:	5fffe9ac 	bne         	$t1, $t0, -24(0x3ffe8)	# 120000ba4 <t_fdfill+0x68>
   120000bc0:	50000800 	b           	8(0x8)	# 120000bc8 <t_fdfill+0x8c>
/home/airxs/user/os/testsuites/testsuits-for-oskernel/libc-test/src/common/fdfill.c:11
   120000bc4:	03400000 	andi        	$zero, $zero, 0x0
/home/airxs/user/os/testsuites/testsuits-for-oskernel/libc-test/src/common/fdfill.c:15
   120000bc8:	28c06061 	ld.d        	$ra, $sp, 24(0x18)
   120000bcc:	28c04076 	ld.d        	$fp, $sp, 16(0x10)
   120000bd0:	02c08063 	addi.d      	$sp, $sp, 32(0x20)
   120000bd4:	4c000020 	jirl        	$zero, $ra, 0

0000000120000bd8 <t_memfill>:
t_memfill():
/home/airxs/user/os/testsuites/testsuits-for-oskernel/libc-test/src/common/memfill.c:8
   120000bd8:	02ff8063 	addi.d      	$sp, $sp, -32(0xfe0)
   120000bdc:	29c06061 	st.d        	$ra, $sp, 24(0x18)
   120000be0:	29c04076 	st.d        	$fp, $sp, 16(0x10)
   120000be4:	02c08076 	addi.d      	$fp, $sp, 32(0x20)
/home/airxs/user/os/testsuites/testsuits-for-oskernel/libc-test/src/common/memfill.c:9
   120000be8:	29bfb2c0 	st.w        	$zero, $fp, -20(0xfec)
/home/airxs/user/os/testsuites/testsuits-for-oskernel/libc-test/src/common/memfill.c:11
   120000bec:	00150006 	move        	$a2, $zero
   120000bf0:	00150005 	move        	$a1, $zero
   120000bf4:	00150004 	move        	$a0, $zero
   120000bf8:	54183c00 	bl          	6204(0x183c)	# 120002434 <t_vmfill>
   120000bfc:	0015008c 	move        	$t0, $a0
   120000c00:	64003580 	bge         	$t0, $zero, 52(0x34)	# 120000c34 <t_memfill+0x5c>
/home/airxs/user/os/testsuites/testsuits-for-oskernel/libc-test/src/common/memfill.c:12
   120000c04:	543dd000 	bl          	15824(0x3dd0)	# 1200049d4 <__errno_location>
   120000c08:	0015008c 	move        	$t0, $a0
   120000c0c:	2880018c 	ld.w        	$t0, $t0, 0
   120000c10:	00150184 	move        	$a0, $t0
   120000c14:	543e1000 	bl          	15888(0x3e10)	# 120004a24 <strerror>
   120000c18:	0015008c 	move        	$t0, $a0
   120000c1c:	00150185 	move        	$a1, $t0
   120000c20:	1c0001e4 	pcaddu12i   	$a0, 15(0xf)
   120000c24:	02d92084 	addi.d      	$a0, $a0, 1608(0x648)
   120000c28:	540a3c00 	bl          	2620(0xa3c)	# 120001664 <t_printf>
/home/airxs/user/os/testsuites/testsuits-for-oskernel/libc-test/src/common/memfill.c:13
   120000c2c:	02bffc0c 	addi.w      	$t0, $zero, -1(0xfff)
   120000c30:	29bfb2cc 	st.w        	$t0, $fp, -20(0xfec)
/home/airxs/user/os/testsuites/testsuits-for-oskernel/libc-test/src/common/memfill.c:16
   120000c34:	00150005 	move        	$a1, $zero
   120000c38:	02800804 	addi.w      	$a0, $zero, 2(0x2)
   120000c3c:	5414b000 	bl          	5296(0x14b0)	# 1200020ec <t_setrlim>
   120000c40:	0015008c 	move        	$t0, $a0
   120000c44:	64000d80 	bge         	$t0, $zero, 12(0xc)	# 120000c50 <t_memfill+0x78>
/home/airxs/user/os/testsuites/testsuits-for-oskernel/libc-test/src/common/memfill.c:17
   120000c48:	02bffc0c 	addi.w      	$t0, $zero, -1(0xfff)
   120000c4c:	29bfb2cc 	st.w        	$t0, $fp, -20(0xfec)
/home/airxs/user/os/testsuites/testsuits-for-oskernel/libc-test/src/common/memfill.c:18
   120000c50:	28bfb2cc 	ld.w        	$t0, $fp, -20(0xfec)
   120000c54:	44001980 	bnez        	$t0, 24(0x18)	# 120000c6c <t_memfill+0x94>
/home/airxs/user/os/testsuites/testsuits-for-oskernel/libc-test/src/common/memfill.c:20
   120000c58:	03400000 	andi        	$zero, $zero, 0x0
/home/airxs/user/os/testsuites/testsuits-for-oskernel/libc-test/src/common/memfill.c:20 (discriminator 1)
   120000c5c:	02800404 	addi.w      	$a0, $zero, 1(0x1)
   120000c60:	5448c000 	bl          	18624(0x48c0)	# 120005520 <malloc>
   120000c64:	0015008c 	move        	$t0, $a0
   120000c68:	47fff59f 	bnez        	$t0, -12(0x7ffff4)	# 120000c5c <t_memfill+0x84>
/home/airxs/user/os/testsuites/testsuits-for-oskernel/libc-test/src/common/memfill.c:21
   120000c6c:	28bfb2cc 	ld.w        	$t0, $fp, -20(0xfec)
/home/airxs/user/os/testsuites/testsuits-for-oskernel/libc-test/src/common/memfill.c:22
   120000c70:	00150184 	move        	$a0, $t0
   120000c74:	28c06061 	ld.d        	$ra, $sp, 24(0x18)
   120000c78:	28c04076 	ld.d        	$fp, $sp, 16(0x10)
   120000c7c:	02c08063 	addi.d      	$sp, $sp, 32(0x20)
   120000c80:	4c000020 	jirl        	$zero, $ra, 0

0000000120000c84 <__FLOAT_BITS>:
__FLOAT_BITS():
/home/airxs/user/os/system/local/musl/include/math.h:56
   120000c84:	02ff4063 	addi.d      	$sp, $sp, -48(0xfd0)
   120000c88:	29c0a076 	st.d        	$fp, $sp, 40(0x28)
   120000c8c:	02c0c076 	addi.d      	$fp, $sp, 48(0x30)
   120000c90:	2b7f72c0 	fst.s       	$fa0, $fp, -36(0xfdc)
/home/airxs/user/os/system/local/musl/include/math.h:58
   120000c94:	2b3f72c0 	fld.s       	$fa0, $fp, -36(0xfdc)
   120000c98:	2b7fa2c0 	fst.s       	$fa0, $fp, -24(0xfe8)
/home/airxs/user/os/system/local/musl/include/math.h:59
   120000c9c:	28bfa2cc 	ld.w        	$t0, $fp, -24(0xfe8)
/home/airxs/user/os/system/local/musl/include/math.h:60
   120000ca0:	00150184 	move        	$a0, $t0
   120000ca4:	28c0a076 	ld.d        	$fp, $sp, 40(0x28)
   120000ca8:	02c0c063 	addi.d      	$sp, $sp, 48(0x30)
   120000cac:	4c000020 	jirl        	$zero, $ra, 0

0000000120000cb0 <__DOUBLE_BITS>:
__DOUBLE_BITS():
/home/airxs/user/os/system/local/musl/include/math.h:62
   120000cb0:	02ff4063 	addi.d      	$sp, $sp, -48(0xfd0)
   120000cb4:	29c0a076 	st.d        	$fp, $sp, 40(0x28)
   120000cb8:	02c0c076 	addi.d      	$fp, $sp, 48(0x30)
   120000cbc:	2bff62c0 	fst.d       	$fa0, $fp, -40(0xfd8)
/home/airxs/user/os/system/local/musl/include/math.h:64
   120000cc0:	2bbf62c0 	fld.d       	$fa0, $fp, -40(0xfd8)
   120000cc4:	2bffa2c0 	fst.d       	$fa0, $fp, -24(0xfe8)
/home/airxs/user/os/system/local/musl/include/math.h:65
   120000cc8:	28ffa2cc 	ld.d        	$t0, $fp, -24(0xfe8)
/home/airxs/user/os/system/local/musl/include/math.h:66
   120000ccc:	00150184 	move        	$a0, $t0
   120000cd0:	28c0a076 	ld.d        	$fp, $sp, 40(0x28)
   120000cd4:	02c0c063 	addi.d      	$sp, $sp, 48(0x30)
   120000cd8:	4c000020 	jirl        	$zero, $ra, 0

0000000120000cdc <checkexcept>:
checkexcept():
/home/airxs/user/os/testsuites/testsuits-for-oskernel/libc-test/src/common/mtest.h:103
   120000cdc:	02ff8063 	addi.d      	$sp, $sp, -32(0xfe0)
   120000ce0:	29c06076 	st.d        	$fp, $sp, 24(0x18)
   120000ce4:	02c08076 	addi.d      	$fp, $sp, 32(0x20)
   120000ce8:	0015008e 	move        	$t2, $a0
   120000cec:	001500ad 	move        	$t1, $a1
   120000cf0:	001500cc 	move        	$t0, $a2
   120000cf4:	004081ce 	slli.w      	$t2, $t2, 0x0
   120000cf8:	29bfb2ce 	st.w        	$t2, $fp, -20(0xfec)
   120000cfc:	004081ad 	slli.w      	$t1, $t1, 0x0
   120000d00:	29bfa2cd 	st.w        	$t1, $fp, -24(0xfe8)
   120000d04:	0040818c 	slli.w      	$t0, $t0, 0x0
   120000d08:	29bf92cc 	st.w        	$t0, $fp, -28(0xfe4)
/home/airxs/user/os/testsuites/testsuits-for-oskernel/libc-test/src/common/mtest.h:104
   120000d0c:	28bf92cc 	ld.w        	$t0, $fp, -28(0xfe4)
   120000d10:	44003580 	bnez        	$t0, 52(0x34)	# 120000d44 <checkexcept+0x68>
/home/airxs/user/os/testsuites/testsuits-for-oskernel/libc-test/src/common/mtest.h:110
   120000d14:	28bfb2cd 	ld.w        	$t1, $fp, -20(0xfec)
   120000d18:	1400020c 	lu12i.w     	$t0, 16(0x10)
   120000d1c:	001531ac 	or          	$t0, $t1, $t0
   120000d20:	0015018e 	move        	$t2, $t0
   120000d24:	28bfa2cd 	ld.w        	$t1, $fp, -24(0xfe8)
   120000d28:	1400020c 	lu12i.w     	$t0, 16(0x10)
   120000d2c:	001531ac 	or          	$t0, $t1, $t0
   120000d30:	001501cd 	move        	$t1, $t2
   120000d34:	0011b1ac 	sub.d       	$t0, $t1, $t0
   120000d38:	0240058c 	sltui       	$t0, $t0, 1(0x1)
   120000d3c:	0067818c 	bstrpick.w  	$t0, $t0, 0x7, 0x0
   120000d40:	50003000 	b           	48(0x30)	# 120000d70 <checkexcept+0x94>
/home/airxs/user/os/testsuites/testsuits-for-oskernel/libc-test/src/common/mtest.h:112
   120000d44:	28bfb2cd 	ld.w        	$t1, $fp, -20(0xfec)
   120000d48:	1400060c 	lu12i.w     	$t0, 48(0x30)
   120000d4c:	001531ac 	or          	$t0, $t1, $t0
   120000d50:	0015018e 	move        	$t2, $t0
   120000d54:	28bfa2cd 	ld.w        	$t1, $fp, -24(0xfe8)
   120000d58:	1400060c 	lu12i.w     	$t0, 48(0x30)
   120000d5c:	001531ac 	or          	$t0, $t1, $t0
   120000d60:	001501cd 	move        	$t1, $t2
   120000d64:	0011b1ac 	sub.d       	$t0, $t1, $t0
   120000d68:	0240058c 	sltui       	$t0, $t0, 1(0x1)
   120000d6c:	0067818c 	bstrpick.w  	$t0, $t0, 0x7, 0x0
/home/airxs/user/os/testsuites/testsuits-for-oskernel/libc-test/src/common/mtest.h:113
   120000d70:	00150184 	move        	$a0, $t0
   120000d74:	28c06076 	ld.d        	$fp, $sp, 24(0x18)
   120000d78:	02c08063 	addi.d      	$sp, $sp, 32(0x20)
   120000d7c:	4c000020 	jirl        	$zero, $ra, 0

0000000120000d80 <checkexceptall>:
checkexceptall():
/home/airxs/user/os/testsuites/testsuits-for-oskernel/libc-test/src/common/mtest.h:116
   120000d80:	02ff8063 	addi.d      	$sp, $sp, -32(0xfe0)
   120000d84:	29c06076 	st.d        	$fp, $sp, 24(0x18)
   120000d88:	02c08076 	addi.d      	$fp, $sp, 32(0x20)
   120000d8c:	0015008e 	move        	$t2, $a0
   120000d90:	001500ad 	move        	$t1, $a1
   120000d94:	001500cc 	move        	$t0, $a2
   120000d98:	004081ce 	slli.w      	$t2, $t2, 0x0
   120000d9c:	29bfb2ce 	st.w        	$t2, $fp, -20(0xfec)
   120000da0:	004081ad 	slli.w      	$t1, $t1, 0x0
   120000da4:	29bfa2cd 	st.w        	$t1, $fp, -24(0xfe8)
   120000da8:	0040818c 	slli.w      	$t0, $t0, 0x0
   120000dac:	29bf92cc 	st.w        	$t0, $fp, -28(0xfe4)
/home/airxs/user/os/testsuites/testsuits-for-oskernel/libc-test/src/common/mtest.h:117
   120000db0:	28bfb2cd 	ld.w        	$t1, $fp, -20(0xfec)
   120000db4:	28bfa2cc 	ld.w        	$t0, $fp, -24(0xfe8)
   120000db8:	0011b1ac 	sub.d       	$t0, $t1, $t0
   120000dbc:	0240058c 	sltui       	$t0, $t0, 1(0x1)
   120000dc0:	0067818c 	bstrpick.w  	$t0, $t0, 0x7, 0x0
/home/airxs/user/os/testsuites/testsuits-for-oskernel/libc-test/src/common/mtest.h:118
   120000dc4:	00150184 	move        	$a0, $t0
   120000dc8:	28c06076 	ld.d        	$fp, $sp, 24(0x18)
   120000dcc:	02c08063 	addi.d      	$sp, $sp, 32(0x20)
   120000dd0:	4c000020 	jirl        	$zero, $ra, 0

0000000120000dd4 <checkulp>:
checkulp():
/home/airxs/user/os/testsuites/testsuits-for-oskernel/libc-test/src/common/mtest.h:121
   120000dd4:	02ff8063 	addi.d      	$sp, $sp, -32(0xfe0)
   120000dd8:	29c06061 	st.d        	$ra, $sp, 24(0x18)
   120000ddc:	29c04076 	st.d        	$fp, $sp, 16(0x10)
   120000de0:	02c08076 	addi.d      	$fp, $sp, 32(0x20)
   120000de4:	2b7fb2c0 	fst.s       	$fa0, $fp, -20(0xfec)
   120000de8:	0015008c 	move        	$t0, $a0
   120000dec:	0040818c 	slli.w      	$t0, $t0, 0x0
   120000df0:	29bfa2cc 	st.w        	$t0, $fp, -24(0xfe8)
/home/airxs/user/os/testsuites/testsuits-for-oskernel/libc-test/src/common/mtest.h:123
   120000df4:	28bfa2cc 	ld.w        	$t0, $fp, -24(0xfe8)
   120000df8:	44003580 	bnez        	$t0, 52(0x34)	# 120000e2c <checkulp+0x58>
/home/airxs/user/os/testsuites/testsuits-for-oskernel/libc-test/src/common/mtest.h:124
   120000dfc:	2b3fb2c0 	fld.s       	$fa0, $fp, -20(0xfec)
   120000e00:	54687400 	bl          	26740(0x6874)	# 120007674 <fabsf>
   120000e04:	01149401 	fmov.s      	$fa1, $fa0
   120000e08:	0280040d 	addi.w      	$t1, $zero, 1(0x1)
   120000e0c:	1c0001ec 	pcaddu12i   	$t0, 15(0xf)
   120000e10:	02d4818c 	addi.d      	$t0, $t0, 1312(0x520)
   120000e14:	2b000180 	fld.s       	$fa0, $t0, 0
   120000e18:	0c118020 	fcmp.slt.s  	$fcc0, $fa1, $fa0
   120000e1c:	48000900 	bcnez       	$fcc0, 8(0x8)	# 120000e24 <checkulp+0x50>
   120000e20:	0015000d 	move        	$t1, $zero
   120000e24:	006781ac 	bstrpick.w  	$t0, $t1, 0x7, 0x0
   120000e28:	50003000 	b           	48(0x30)	# 120000e58 <checkulp+0x84>
/home/airxs/user/os/testsuites/testsuits-for-oskernel/libc-test/src/common/mtest.h:126
   120000e2c:	2b3fb2c0 	fld.s       	$fa0, $fp, -20(0xfec)
   120000e30:	54684400 	bl          	26692(0x6844)	# 120007674 <fabsf>
   120000e34:	01149401 	fmov.s      	$fa1, $fa0
   120000e38:	0280040d 	addi.w      	$t1, $zero, 1(0x1)
   120000e3c:	1c0001ec 	pcaddu12i   	$t0, 15(0xf)
   120000e40:	02d3d18c 	addi.d      	$t0, $t0, 1268(0x4f4)
   120000e44:	2b000180 	fld.s       	$fa0, $t0, 0
   120000e48:	0c118021 	fcmp.slt.s  	$fcc1, $fa1, $fa0
   120000e4c:	48000920 	bcnez       	$fcc1, 8(0x8)	# 120000e54 <checkulp+0x80>
   120000e50:	0015000d 	move        	$t1, $zero
   120000e54:	006781ac 	bstrpick.w  	$t0, $t1, 0x7, 0x0
/home/airxs/user/os/testsuites/testsuits-for-oskernel/libc-test/src/common/mtest.h:127
   120000e58:	00150184 	move        	$a0, $t0
   120000e5c:	28c06061 	ld.d        	$ra, $sp, 24(0x18)
   120000e60:	28c04076 	ld.d        	$fp, $sp, 16(0x10)
   120000e64:	02c08063 	addi.d      	$sp, $sp, 32(0x20)
   120000e68:	4c000020 	jirl        	$zero, $ra, 0

0000000120000e6c <checkcr>:
checkcr():
/home/airxs/user/os/testsuites/testsuits-for-oskernel/libc-test/src/common/mtest.h:130
   120000e6c:	02fec063 	addi.d      	$sp, $sp, -80(0xfb0)
   120000e70:	29c12061 	st.d        	$ra, $sp, 72(0x48)
   120000e74:	29c10076 	st.d        	$fp, $sp, 64(0x40)
   120000e78:	29c0e077 	st.d        	$s0, $sp, 56(0x38)
   120000e7c:	02c14076 	addi.d      	$fp, $sp, 80(0x50)
   120000e80:	29ff42c4 	st.d        	$a0, $fp, -48(0xfd0)
   120000e84:	29ff62c5 	st.d        	$a1, $fp, -40(0xfd8)
   120000e88:	29ff02c6 	st.d        	$a2, $fp, -64(0xfc0)
   120000e8c:	29ff22c7 	st.d        	$a3, $fp, -56(0xfc8)
   120000e90:	0015010c 	move        	$t0, $a4
   120000e94:	0040818c 	slli.w      	$t0, $t0, 0x0
   120000e98:	29bef2cc 	st.w        	$t0, $fp, -68(0xfbc)
/home/airxs/user/os/testsuites/testsuits-for-oskernel/libc-test/src/common/mtest.h:131
   120000e9c:	28ff02c4 	ld.d        	$a0, $fp, -64(0xfc0)
   120000ea0:	28ff22c5 	ld.d        	$a1, $fp, -56(0xfc8)
   120000ea4:	54675800 	bl          	26456(0x6758)	# 1200075fc <__fpclassifyl>
   120000ea8:	0015008c 	move        	$t0, $a0
   120000eac:	44002180 	bnez        	$t0, 32(0x20)	# 120000ecc <checkcr+0x60>
/home/airxs/user/os/testsuites/testsuits-for-oskernel/libc-test/src/common/mtest.h:132
   120000eb0:	28ff42c4 	ld.d        	$a0, $fp, -48(0xfd0)
   120000eb4:	28ff62c5 	ld.d        	$a1, $fp, -40(0xfd8)
   120000eb8:	54674400 	bl          	26436(0x6744)	# 1200075fc <__fpclassifyl>
   120000ebc:	0015008c 	move        	$t0, $a0
   120000ec0:	0240058c 	sltui       	$t0, $t0, 1(0x1)
   120000ec4:	0067818c 	bstrpick.w  	$t0, $t0, 0x7, 0x0
   120000ec8:	50005800 	b           	88(0x58)	# 120000f20 <checkcr+0xb4>
/home/airxs/user/os/testsuites/testsuits-for-oskernel/libc-test/src/common/mtest.h:133
   120000ecc:	28ff02c6 	ld.d        	$a2, $fp, -64(0xfc0)
   120000ed0:	28ff22c7 	ld.d        	$a3, $fp, -56(0xfc8)
   120000ed4:	28ff42c4 	ld.d        	$a0, $fp, -48(0xfd0)
   120000ed8:	28ff62c5 	ld.d        	$a1, $fp, -40(0xfd8)
   120000edc:	54265400 	bl          	9812(0x2654)	# 120003530 <__eqtf2>
   120000ee0:	0015008c 	move        	$t0, $a0
   120000ee4:	44003980 	bnez        	$t0, 56(0x38)	# 120000f1c <checkcr+0xb0>
/home/airxs/user/os/testsuites/testsuits-for-oskernel/libc-test/src/common/mtest.h:133 (discriminator 1)
   120000ee8:	28ff42c4 	ld.d        	$a0, $fp, -48(0xfd0)
   120000eec:	28ff62c5 	ld.d        	$a1, $fp, -40(0xfd8)
   120000ef0:	54675400 	bl          	26452(0x6754)	# 120007644 <__signbitl>
   120000ef4:	0015008c 	move        	$t0, $a0
   120000ef8:	00150197 	move        	$s0, $t0
   120000efc:	28ff02c4 	ld.d        	$a0, $fp, -64(0xfc0)
   120000f00:	28ff22c5 	ld.d        	$a1, $fp, -56(0xfc8)
   120000f04:	54674000 	bl          	26432(0x6740)	# 120007644 <__signbitl>
   120000f08:	0015008c 	move        	$t0, $a0
   120000f0c:	001502ed 	move        	$t1, $s0
   120000f10:	5c000dac 	bne         	$t1, $t0, 12(0xc)	# 120000f1c <checkcr+0xb0>
/home/airxs/user/os/testsuites/testsuits-for-oskernel/libc-test/src/common/mtest.h:133 (discriminator 3)
   120000f14:	0280040c 	addi.w      	$t0, $zero, 1(0x1)
   120000f18:	50000800 	b           	8(0x8)	# 120000f20 <checkcr+0xb4>
/home/airxs/user/os/testsuites/testsuits-for-oskernel/libc-test/src/common/mtest.h:133 (discriminator 4)
   120000f1c:	0015000c 	move        	$t0, $zero
/home/airxs/user/os/testsuites/testsuits-for-oskernel/libc-test/src/common/mtest.h:134
   120000f20:	00150184 	move        	$a0, $t0
   120000f24:	28c12061 	ld.d        	$ra, $sp, 72(0x48)
   120000f28:	28c10076 	ld.d        	$fp, $sp, 64(0x40)
   120000f2c:	28c0e077 	ld.d        	$s0, $sp, 56(0x38)
   120000f30:	02c14063 	addi.d      	$sp, $sp, 80(0x50)
   120000f34:	4c000020 	jirl        	$zero, $ra, 0

0000000120000f38 <eulpf>:
eulpf():
/home/airxs/user/os/testsuites/testsuits-for-oskernel/libc-test/src/common/mtest.c:6
   120000f38:	02ff4063 	addi.d      	$sp, $sp, -48(0xfd0)
   120000f3c:	29c0a076 	st.d        	$fp, $sp, 40(0x28)
   120000f40:	02c0c076 	addi.d      	$fp, $sp, 48(0x30)
   120000f44:	2b7f72c0 	fst.s       	$fa0, $fp, -36(0xfdc)
/home/airxs/user/os/testsuites/testsuits-for-oskernel/libc-test/src/common/mtest.c:7
   120000f48:	2b3f72c0 	fld.s       	$fa0, $fp, -36(0xfdc)
   120000f4c:	2b7fa2c0 	fst.s       	$fa0, $fp, -24(0xfe8)
/home/airxs/user/os/testsuites/testsuits-for-oskernel/libc-test/src/common/mtest.c:8
   120000f50:	28bfa2cc 	ld.w        	$t0, $fp, -24(0xfe8)
   120000f54:	0044dd8c 	srli.w      	$t0, $t0, 0x17
   120000f58:	0343fd8c 	andi        	$t0, $t0, 0xff
   120000f5c:	29bfb2cc 	st.w        	$t0, $fp, -20(0xfec)
/home/airxs/user/os/testsuites/testsuits-for-oskernel/libc-test/src/common/mtest.c:10
   120000f60:	28bfb2cc 	ld.w        	$t0, $fp, -20(0xfec)
   120000f64:	44001180 	bnez        	$t0, 16(0x10)	# 120000f74 <eulpf+0x3c>
/home/airxs/user/os/testsuites/testsuits-for-oskernel/libc-test/src/common/mtest.c:11
   120000f68:	28bfb2cc 	ld.w        	$t0, $fp, -20(0xfec)
   120000f6c:	0280058c 	addi.w      	$t0, $t0, 1(0x1)
   120000f70:	29bfb2cc 	st.w        	$t0, $fp, -20(0xfec)
/home/airxs/user/os/testsuites/testsuits-for-oskernel/libc-test/src/common/mtest.c:12
   120000f74:	28bfb2cc 	ld.w        	$t0, $fp, -20(0xfec)
   120000f78:	02bda98c 	addi.w      	$t0, $t0, -150(0xf6a)
/home/airxs/user/os/testsuites/testsuits-for-oskernel/libc-test/src/common/mtest.c:13
   120000f7c:	00150184 	move        	$a0, $t0
   120000f80:	28c0a076 	ld.d        	$fp, $sp, 40(0x28)
   120000f84:	02c0c063 	addi.d      	$sp, $sp, 48(0x30)
   120000f88:	4c000020 	jirl        	$zero, $ra, 0

0000000120000f8c <eulp>:
eulp():
/home/airxs/user/os/testsuites/testsuits-for-oskernel/libc-test/src/common/mtest.c:16
   120000f8c:	02ff4063 	addi.d      	$sp, $sp, -48(0xfd0)
   120000f90:	29c0a076 	st.d        	$fp, $sp, 40(0x28)
   120000f94:	02c0c076 	addi.d      	$fp, $sp, 48(0x30)
   120000f98:	2bff62c0 	fst.d       	$fa0, $fp, -40(0xfd8)
/home/airxs/user/os/testsuites/testsuits-for-oskernel/libc-test/src/common/mtest.c:17
   120000f9c:	2bbf62c0 	fld.d       	$fa0, $fp, -40(0xfd8)
   120000fa0:	2bff82c0 	fst.d       	$fa0, $fp, -32(0xfe0)
/home/airxs/user/os/testsuites/testsuits-for-oskernel/libc-test/src/common/mtest.c:18
   120000fa4:	28ff82cc 	ld.d        	$t0, $fp, -32(0xfe0)
   120000fa8:	0045d18c 	srli.d      	$t0, $t0, 0x34
   120000fac:	0040818c 	slli.w      	$t0, $t0, 0x0
   120000fb0:	035ffd8c 	andi        	$t0, $t0, 0x7ff
   120000fb4:	29bfb2cc 	st.w        	$t0, $fp, -20(0xfec)
/home/airxs/user/os/testsuites/testsuits-for-oskernel/libc-test/src/common/mtest.c:20
   120000fb8:	28bfb2cc 	ld.w        	$t0, $fp, -20(0xfec)
   120000fbc:	44001180 	bnez        	$t0, 16(0x10)	# 120000fcc <eulp+0x40>
/home/airxs/user/os/testsuites/testsuits-for-oskernel/libc-test/src/common/mtest.c:21
   120000fc0:	28bfb2cc 	ld.w        	$t0, $fp, -20(0xfec)
   120000fc4:	0280058c 	addi.w      	$t0, $t0, 1(0x1)
   120000fc8:	29bfb2cc 	st.w        	$t0, $fp, -20(0xfec)
/home/airxs/user/os/testsuites/testsuits-for-oskernel/libc-test/src/common/mtest.c:22
   120000fcc:	28bfb2cc 	ld.w        	$t0, $fp, -20(0xfec)
   120000fd0:	02af358c 	addi.w      	$t0, $t0, -1075(0xbcd)
/home/airxs/user/os/testsuites/testsuits-for-oskernel/libc-test/src/common/mtest.c:23
   120000fd4:	00150184 	move        	$a0, $t0
   120000fd8:	28c0a076 	ld.d        	$fp, $sp, 40(0x28)
   120000fdc:	02c0c063 	addi.d      	$sp, $sp, 48(0x30)
   120000fe0:	4c000020 	jirl        	$zero, $ra, 0

0000000120000fe4 <eulpl>:
eulpl():
/home/airxs/user/os/testsuites/testsuits-for-oskernel/libc-test/src/common/mtest.c:26
   120000fe4:	02ff8063 	addi.d      	$sp, $sp, -32(0xfe0)
   120000fe8:	29c06076 	st.d        	$fp, $sp, 24(0x18)
   120000fec:	02c08076 	addi.d      	$fp, $sp, 32(0x20)
   120000ff0:	29ff82c4 	st.d        	$a0, $fp, -32(0xfe0)
   120000ff4:	29ffa2c5 	st.d        	$a1, $fp, -24(0xfe8)
/home/airxs/user/os/testsuites/testsuits-for-oskernel/libc-test/src/common/mtest.c:38
   120000ff8:	0015000c 	move        	$t0, $zero
/home/airxs/user/os/testsuites/testsuits-for-oskernel/libc-test/src/common/mtest.c:40
   120000ffc:	00150184 	move        	$a0, $t0
   120001000:	28c06076 	ld.d        	$fp, $sp, 24(0x18)
   120001004:	02c08063 	addi.d      	$sp, $sp, 32(0x20)
   120001008:	4c000020 	jirl        	$zero, $ra, 0

000000012000100c <ulperrf>:
ulperrf():
/home/airxs/user/os/testsuites/testsuits-for-oskernel/libc-test/src/common/mtest.c:43
   12000100c:	02ff0063 	addi.d      	$sp, $sp, -64(0xfc0)
   120001010:	29c0e061 	st.d        	$ra, $sp, 56(0x38)
   120001014:	29c0c076 	st.d        	$fp, $sp, 48(0x30)
   120001018:	29c0a077 	st.d        	$s0, $sp, 40(0x28)
   12000101c:	2bc06078 	fst.d       	$fs0, $sp, 24(0x18)
   120001020:	02c10076 	addi.d      	$fp, $sp, 64(0x40)
   120001024:	2b7f32c0 	fst.s       	$fa0, $fp, -52(0xfcc)
   120001028:	2b7f22c1 	fst.s       	$fa1, $fp, -56(0xfc8)
   12000102c:	2b7f12c2 	fst.s       	$fa2, $fp, -60(0xfc4)
/home/airxs/user/os/testsuites/testsuits-for-oskernel/libc-test/src/common/mtest.c:44
   120001030:	2b3f32c0 	fld.s       	$fa0, $fp, -52(0xfcc)
   120001034:	57fc53ff 	bl          	-944(0xffffc50)	# 120000c84 <__FLOAT_BITS>
   120001038:	0015008c 	move        	$t0, $a0
   12000103c:	0015018d 	move        	$t1, $t0
   120001040:	14ffffec 	lu12i.w     	$t0, 524287(0x7ffff)
   120001044:	03bffd8c 	ori         	$t0, $t0, 0xfff
   120001048:	0014b1ac 	and         	$t0, $t1, $t0
   12000104c:	0015018d 	move        	$t1, $t0
   120001050:	14ff000c 	lu12i.w     	$t0, 522240(0x7f800)
   120001054:	6c00358d 	bgeu        	$t0, $t1, 52(0x34)	# 120001088 <ulperrf+0x7c>
/home/airxs/user/os/testsuites/testsuits-for-oskernel/libc-test/src/common/mtest.c:44 (discriminator 1)
   120001058:	2b3f22c0 	fld.s       	$fa0, $fp, -56(0xfc8)
   12000105c:	57fc2bff 	bl          	-984(0xffffc28)	# 120000c84 <__FLOAT_BITS>
   120001060:	0015008c 	move        	$t0, $a0
   120001064:	0015018d 	move        	$t1, $t0
   120001068:	14ffffec 	lu12i.w     	$t0, 524287(0x7ffff)
   12000106c:	03bffd8c 	ori         	$t0, $t0, 0xfff
   120001070:	0014b1ac 	and         	$t0, $t1, $t0
   120001074:	0015018d 	move        	$t1, $t0
   120001078:	14ff000c 	lu12i.w     	$t0, 522240(0x7f800)
   12000107c:	6c000d8d 	bgeu        	$t0, $t1, 12(0xc)	# 120001088 <ulperrf+0x7c>
/home/airxs/user/os/testsuites/testsuits-for-oskernel/libc-test/src/common/mtest.c:45
   120001080:	0114a400 	movgr2fr.w  	$fa0, $zero
   120001084:	5000f000 	b           	240(0xf0)	# 120001174 <ulperrf+0x168>
/home/airxs/user/os/testsuites/testsuits-for-oskernel/libc-test/src/common/mtest.c:46
   120001088:	2b3f32c1 	fld.s       	$fa1, $fp, -52(0xfcc)
   12000108c:	2b3f22c0 	fld.s       	$fa0, $fp, -56(0xfc8)
   120001090:	0c1c0020 	fcmp.cune.s 	$fcc0, $fa1, $fa0
   120001094:	48004900 	bcnez       	$fcc0, 72(0x48)	# 1200010dc <ulperrf+0xd0>
/home/airxs/user/os/testsuites/testsuits-for-oskernel/libc-test/src/common/mtest.c:47
   120001098:	2b3f32c0 	fld.s       	$fa0, $fp, -52(0xfcc)
   12000109c:	57fbebff 	bl          	-1048(0xffffbe8)	# 120000c84 <__FLOAT_BITS>
   1200010a0:	0015008c 	move        	$t0, $a0
   1200010a4:	0044fd8c 	srli.w      	$t0, $t0, 0x1f
   1200010a8:	00150197 	move        	$s0, $t0
   1200010ac:	2b3f22c0 	fld.s       	$fa0, $fp, -56(0xfc8)
   1200010b0:	57fbd7ff 	bl          	-1068(0xffffbd4)	# 120000c84 <__FLOAT_BITS>
   1200010b4:	0015008c 	move        	$t0, $a0
   1200010b8:	0044fd8c 	srli.w      	$t0, $t0, 0x1f
   1200010bc:	001502ed 	move        	$t1, $s0
   1200010c0:	5c000dac 	bne         	$t1, $t0, 12(0xc)	# 1200010cc <ulperrf+0xc0>
/home/airxs/user/os/testsuites/testsuits-for-oskernel/libc-test/src/common/mtest.c:48
   1200010c4:	2b3f12c0 	fld.s       	$fa0, $fp, -60(0xfc4)
   1200010c8:	5000ac00 	b           	172(0xac)	# 120001174 <ulperrf+0x168>
/home/airxs/user/os/testsuites/testsuits-for-oskernel/libc-test/src/common/mtest.c:49
   1200010cc:	1c0001ec 	pcaddu12i   	$t0, 15(0xf)
   1200010d0:	02c9a18c 	addi.d      	$t0, $t0, 616(0x268)
   1200010d4:	2b000180 	fld.s       	$fa0, $t0, 0
   1200010d8:	50009c00 	b           	156(0x9c)	# 120001174 <ulperrf+0x168>
/home/airxs/user/os/testsuites/testsuits-for-oskernel/libc-test/src/common/mtest.c:51
   1200010dc:	2b3f32c0 	fld.s       	$fa0, $fp, -52(0xfcc)
   1200010e0:	57fba7ff 	bl          	-1116(0xffffba4)	# 120000c84 <__FLOAT_BITS>
   1200010e4:	0015008c 	move        	$t0, $a0
   1200010e8:	0015018d 	move        	$t1, $t0
   1200010ec:	14ffffec 	lu12i.w     	$t0, 524287(0x7ffff)
   1200010f0:	03bffd8c 	ori         	$t0, $t0, 0xfff
   1200010f4:	0014b1ac 	and         	$t0, $t1, $t0
   1200010f8:	0015018d 	move        	$t1, $t0
   1200010fc:	14ff000c 	lu12i.w     	$t0, 522240(0x7f800)
   120001100:	5c0035ac 	bne         	$t1, $t0, 52(0x34)	# 120001134 <ulperrf+0x128>
/home/airxs/user/os/testsuites/testsuits-for-oskernel/libc-test/src/common/mtest.c:52
   120001104:	1c0001ec 	pcaddu12i   	$t0, 15(0xf)
   120001108:	02c8d18c 	addi.d      	$t0, $t0, 564(0x234)
   12000110c:	2b000180 	fld.s       	$fa0, $t0, 0
   120001110:	2b3f32c1 	fld.s       	$fa1, $fp, -52(0xfcc)
   120001114:	54654c00 	bl          	25932(0x654c)	# 120007660 <copysignf>
   120001118:	2b7f32c0 	fst.s       	$fa0, $fp, -52(0xfcc)
/home/airxs/user/os/testsuites/testsuits-for-oskernel/libc-test/src/common/mtest.c:53
   12000111c:	2b3f22c1 	fld.s       	$fa1, $fp, -56(0xfc8)
   120001120:	1c0001ec 	pcaddu12i   	$t0, 15(0xf)
   120001124:	02c8718c 	addi.d      	$t0, $t0, 540(0x21c)
   120001128:	2b000180 	fld.s       	$fa0, $t0, 0
   12000112c:	01048020 	fmul.s      	$fa0, $fa1, $fa0
   120001130:	2b7f22c0 	fst.s       	$fa0, $fp, -56(0xfc8)
/home/airxs/user/os/testsuites/testsuits-for-oskernel/libc-test/src/common/mtest.c:55
   120001134:	2b3f32c1 	fld.s       	$fa1, $fp, -52(0xfcc)
   120001138:	2b3f22c0 	fld.s       	$fa0, $fp, -56(0xfc8)
   12000113c:	01028020 	fsub.s      	$fa0, $fa1, $fa0
   120001140:	01192418 	fcvt.d.s    	$fs0, $fa0
   120001144:	2b3f22c0 	fld.s       	$fa0, $fp, -56(0xfc8)
   120001148:	57fdf3ff 	bl          	-528(0xffffdf0)	# 120000f38 <eulpf>
   12000114c:	0015008c 	move        	$t0, $a0
   120001150:	0011300c 	sub.w       	$t0, $zero, $t0
   120001154:	00150184 	move        	$a0, $t0
   120001158:	01149b00 	fmov.d      	$fa0, $fs0
   12000115c:	54652000 	bl          	25888(0x6520)	# 12000767c <scalbn>
   120001160:	01149801 	fmov.d      	$fa1, $fa0
   120001164:	2b3f12c0 	fld.s       	$fa0, $fp, -60(0xfc4)
   120001168:	01192400 	fcvt.d.s    	$fa0, $fa0
   12000116c:	01010020 	fadd.d      	$fa0, $fa1, $fa0
   120001170:	01191800 	fcvt.s.d    	$fa0, $fa0
/home/airxs/user/os/testsuites/testsuits-for-oskernel/libc-test/src/common/mtest.c:56
   120001174:	28c0e061 	ld.d        	$ra, $sp, 56(0x38)
   120001178:	28c0c076 	ld.d        	$fp, $sp, 48(0x30)
   12000117c:	28c0a077 	ld.d        	$s0, $sp, 40(0x28)
   120001180:	2b806078 	fld.d       	$fs0, $sp, 24(0x18)
   120001184:	02c10063 	addi.d      	$sp, $sp, 64(0x40)
   120001188:	4c000020 	jirl        	$zero, $ra, 0

000000012000118c <ulperr>:
ulperr():
/home/airxs/user/os/testsuites/testsuits-for-oskernel/libc-test/src/common/mtest.c:59
   12000118c:	02fec063 	addi.d      	$sp, $sp, -80(0xfb0)
   120001190:	29c12061 	st.d        	$ra, $sp, 72(0x48)
   120001194:	29c10076 	st.d        	$fp, $sp, 64(0x40)
   120001198:	29c0e077 	st.d        	$s0, $sp, 56(0x38)
   12000119c:	2bc0a078 	fst.d       	$fs0, $sp, 40(0x28)
   1200011a0:	02c14076 	addi.d      	$fp, $sp, 80(0x50)
   1200011a4:	2bff22c0 	fst.d       	$fa0, $fp, -56(0xfc8)
   1200011a8:	2bff02c1 	fst.d       	$fa1, $fp, -64(0xfc0)
   1200011ac:	2b7ef2c2 	fst.s       	$fa2, $fp, -68(0xfbc)
/home/airxs/user/os/testsuites/testsuits-for-oskernel/libc-test/src/common/mtest.c:60
   1200011b0:	2bbf22c0 	fld.d       	$fa0, $fp, -56(0xfc8)
   1200011b4:	57faffff 	bl          	-1284(0xffffafc)	# 120000cb0 <__DOUBLE_BITS>
   1200011b8:	0015008d 	move        	$t1, $a0
   1200011bc:	02bffc0c 	addi.w      	$t0, $zero, -1(0xfff)
   1200011c0:	031ffd8c 	lu52i.d     	$t0, $t0, 2047(0x7ff)
   1200011c4:	0014b1ad 	and         	$t1, $t1, $t0
   1200011c8:	031ffc0c 	lu52i.d     	$t0, $zero, 2047(0x7ff)
   1200011cc:	6c002d8d 	bgeu        	$t0, $t1, 44(0x2c)	# 1200011f8 <ulperr+0x6c>
/home/airxs/user/os/testsuites/testsuits-for-oskernel/libc-test/src/common/mtest.c:60 (discriminator 1)
   1200011d0:	2bbf02c0 	fld.d       	$fa0, $fp, -64(0xfc0)
   1200011d4:	57fadfff 	bl          	-1316(0xffffadc)	# 120000cb0 <__DOUBLE_BITS>
   1200011d8:	0015008d 	move        	$t1, $a0
   1200011dc:	02bffc0c 	addi.w      	$t0, $zero, -1(0xfff)
   1200011e0:	031ffd8c 	lu52i.d     	$t0, $t0, 2047(0x7ff)
   1200011e4:	0014b1ad 	and         	$t1, $t1, $t0
   1200011e8:	031ffc0c 	lu52i.d     	$t0, $zero, 2047(0x7ff)
   1200011ec:	6c000d8d 	bgeu        	$t0, $t1, 12(0xc)	# 1200011f8 <ulperr+0x6c>
/home/airxs/user/os/testsuites/testsuits-for-oskernel/libc-test/src/common/mtest.c:61
   1200011f0:	0114a400 	movgr2fr.w  	$fa0, $zero
   1200011f4:	5000ec00 	b           	236(0xec)	# 1200012e0 <ulperr+0x154>
/home/airxs/user/os/testsuites/testsuits-for-oskernel/libc-test/src/common/mtest.c:62
   1200011f8:	2bbf22c1 	fld.d       	$fa1, $fp, -56(0xfc8)
   1200011fc:	2bbf02c0 	fld.d       	$fa0, $fp, -64(0xfc0)
   120001200:	0c2c0020 	fcmp.cune.d 	$fcc0, $fa1, $fa0
   120001204:	48005100 	bcnez       	$fcc0, 80(0x50)	# 120001254 <ulperr+0xc8>
/home/airxs/user/os/testsuites/testsuits-for-oskernel/libc-test/src/common/mtest.c:63
   120001208:	2bbf22c0 	fld.d       	$fa0, $fp, -56(0xfc8)
   12000120c:	57faa7ff 	bl          	-1372(0xffffaa4)	# 120000cb0 <__DOUBLE_BITS>
   120001210:	0015008c 	move        	$t0, $a0
   120001214:	0045fd8c 	srli.d      	$t0, $t0, 0x3f
   120001218:	0040818c 	slli.w      	$t0, $t0, 0x0
   12000121c:	00150197 	move        	$s0, $t0
   120001220:	2bbf02c0 	fld.d       	$fa0, $fp, -64(0xfc0)
   120001224:	57fa8fff 	bl          	-1396(0xffffa8c)	# 120000cb0 <__DOUBLE_BITS>
   120001228:	0015008c 	move        	$t0, $a0
   12000122c:	0045fd8c 	srli.d      	$t0, $t0, 0x3f
   120001230:	0040818c 	slli.w      	$t0, $t0, 0x0
   120001234:	001502ed 	move        	$t1, $s0
   120001238:	5c000dac 	bne         	$t1, $t0, 12(0xc)	# 120001244 <ulperr+0xb8>
/home/airxs/user/os/testsuites/testsuits-for-oskernel/libc-test/src/common/mtest.c:64
   12000123c:	2b3ef2c0 	fld.s       	$fa0, $fp, -68(0xfbc)
   120001240:	5000a000 	b           	160(0xa0)	# 1200012e0 <ulperr+0x154>
/home/airxs/user/os/testsuites/testsuits-for-oskernel/libc-test/src/common/mtest.c:65
   120001244:	1c0001ec 	pcaddu12i   	$t0, 15(0xf)
   120001248:	02c3c18c 	addi.d      	$t0, $t0, 240(0xf0)
   12000124c:	2b000180 	fld.s       	$fa0, $t0, 0
   120001250:	50009000 	b           	144(0x90)	# 1200012e0 <ulperr+0x154>
/home/airxs/user/os/testsuites/testsuits-for-oskernel/libc-test/src/common/mtest.c:67
   120001254:	2bbf22c0 	fld.d       	$fa0, $fp, -56(0xfc8)
   120001258:	57fa5bff 	bl          	-1448(0xffffa58)	# 120000cb0 <__DOUBLE_BITS>
   12000125c:	0015008d 	move        	$t1, $a0
   120001260:	02bffc0c 	addi.w      	$t0, $zero, -1(0xfff)
   120001264:	031ffd8c 	lu52i.d     	$t0, $t0, 2047(0x7ff)
   120001268:	0014b1ad 	and         	$t1, $t1, $t0
   12000126c:	031ffc0c 	lu52i.d     	$t0, $zero, 2047(0x7ff)
   120001270:	5c0035ac 	bne         	$t1, $t0, 52(0x34)	# 1200012a4 <ulperr+0x118>
/home/airxs/user/os/testsuites/testsuits-for-oskernel/libc-test/src/common/mtest.c:68
   120001274:	1c0001ec 	pcaddu12i   	$t0, 15(0xf)
   120001278:	02c3318c 	addi.d      	$t0, $t0, 204(0xcc)
   12000127c:	2b800180 	fld.d       	$fa0, $t0, 0
   120001280:	2bbf22c1 	fld.d       	$fa1, $fp, -56(0xfc8)
   120001284:	5463c800 	bl          	25544(0x63c8)	# 12000764c <copysign>
   120001288:	2bff22c0 	fst.d       	$fa0, $fp, -56(0xfc8)
/home/airxs/user/os/testsuites/testsuits-for-oskernel/libc-test/src/common/mtest.c:69
   12000128c:	2bbf02c1 	fld.d       	$fa1, $fp, -64(0xfc0)
   120001290:	1c0001ec 	pcaddu12i   	$t0, 15(0xf)
   120001294:	02c2e18c 	addi.d      	$t0, $t0, 184(0xb8)
   120001298:	2b800180 	fld.d       	$fa0, $t0, 0
   12000129c:	01050020 	fmul.d      	$fa0, $fa1, $fa0
   1200012a0:	2bff02c0 	fst.d       	$fa0, $fp, -64(0xfc0)
/home/airxs/user/os/testsuites/testsuits-for-oskernel/libc-test/src/common/mtest.c:71
   1200012a4:	2bbf22c1 	fld.d       	$fa1, $fp, -56(0xfc8)
   1200012a8:	2bbf02c0 	fld.d       	$fa0, $fp, -64(0xfc0)
   1200012ac:	01030038 	fsub.d      	$fs0, $fa1, $fa0
   1200012b0:	2bbf02c0 	fld.d       	$fa0, $fp, -64(0xfc0)
   1200012b4:	57fcdbff 	bl          	-808(0xffffcd8)	# 120000f8c <eulp>
   1200012b8:	0015008c 	move        	$t0, $a0
   1200012bc:	0011300c 	sub.w       	$t0, $zero, $t0
   1200012c0:	00150184 	move        	$a0, $t0
   1200012c4:	01149b00 	fmov.d      	$fa0, $fs0
   1200012c8:	5463b400 	bl          	25524(0x63b4)	# 12000767c <scalbn>
   1200012cc:	01149801 	fmov.d      	$fa1, $fa0
   1200012d0:	2b3ef2c0 	fld.s       	$fa0, $fp, -68(0xfbc)
   1200012d4:	01192400 	fcvt.d.s    	$fa0, $fa0
   1200012d8:	01010020 	fadd.d      	$fa0, $fa1, $fa0
   1200012dc:	01191800 	fcvt.s.d    	$fa0, $fa0
/home/airxs/user/os/testsuites/testsuits-for-oskernel/libc-test/src/common/mtest.c:72
   1200012e0:	28c12061 	ld.d        	$ra, $sp, 72(0x48)
   1200012e4:	28c10076 	ld.d        	$fp, $sp, 64(0x40)
   1200012e8:	28c0e077 	ld.d        	$s0, $sp, 56(0x38)
   1200012ec:	2b80a078 	fld.d       	$fs0, $sp, 40(0x28)
   1200012f0:	02c14063 	addi.d      	$sp, $sp, 80(0x50)
   1200012f4:	4c000020 	jirl        	$zero, $ra, 0

00000001200012f8 <ulperrl>:
ulperrl():
/home/airxs/user/os/testsuites/testsuits-for-oskernel/libc-test/src/common/mtest.c:75
   1200012f8:	02ff0063 	addi.d      	$sp, $sp, -64(0xfc0)
   1200012fc:	29c0e076 	st.d        	$fp, $sp, 56(0x38)
   120001300:	02c10076 	addi.d      	$fp, $sp, 64(0x40)
   120001304:	29ff82c4 	st.d        	$a0, $fp, -32(0xfe0)
   120001308:	29ffa2c5 	st.d        	$a1, $fp, -24(0xfe8)
   12000130c:	29ff42c6 	st.d        	$a2, $fp, -48(0xfd0)
   120001310:	29ff62c7 	st.d        	$a3, $fp, -40(0xfd8)
   120001314:	2b7f32c0 	fst.s       	$fa0, $fp, -52(0xfcc)
/home/airxs/user/os/testsuites/testsuits-for-oskernel/libc-test/src/common/mtest.c:93
   120001318:	1c0001ec 	pcaddu12i   	$t0, 15(0xf)
   12000131c:	02c0718c 	addi.d      	$t0, $t0, 28(0x1c)
   120001320:	2b000180 	fld.s       	$fa0, $t0, 0
/home/airxs/user/os/testsuites/testsuits-for-oskernel/libc-test/src/common/mtest.c:95
   120001324:	28c0e076 	ld.d        	$fp, $sp, 56(0x38)
   120001328:	02c10063 	addi.d      	$sp, $sp, 64(0x40)
   12000132c:	4c000020 	jirl        	$zero, $ra, 0

0000000120001330 <estr>:
estr():
/home/airxs/user/os/testsuites/testsuits-for-oskernel/libc-test/src/common/mtest.c:111
   120001330:	02ff4063 	addi.d      	$sp, $sp, -48(0xfd0)
   120001334:	29c0a061 	st.d        	$ra, $sp, 40(0x28)
   120001338:	29c08076 	st.d        	$fp, $sp, 32(0x20)
   12000133c:	02c0c076 	addi.d      	$fp, $sp, 48(0x30)
   120001340:	0015008c 	move        	$t0, $a0
   120001344:	0040818c 	slli.w      	$t0, $t0, 0x0
   120001348:	29bf72cc 	st.w        	$t0, $fp, -36(0xfdc)
/home/airxs/user/os/testsuites/testsuits-for-oskernel/libc-test/src/common/mtest.c:113
   12000134c:	1c0002ec 	pcaddu12i   	$t0, 23(0x17)
   120001350:	02faf18c 	addi.d      	$t0, $t0, -324(0xebc)
   120001354:	29ffa2cc 	st.d        	$t0, $fp, -24(0xfe8)
/home/airxs/user/os/testsuites/testsuits-for-oskernel/libc-test/src/common/mtest.c:114
   120001358:	29bf82c0 	st.w        	$zero, $fp, -32(0xfe0)
/home/airxs/user/os/testsuites/testsuits-for-oskernel/libc-test/src/common/mtest.c:116
   12000135c:	29bf92c0 	st.w        	$zero, $fp, -28(0xfe4)
   120001360:	5000b800 	b           	184(0xb8)	# 120001418 <estr+0xe8>
/home/airxs/user/os/testsuites/testsuits-for-oskernel/libc-test/src/common/mtest.c:117
   120001364:	1c0002ed 	pcaddu12i   	$t1, 23(0x17)
   120001368:	02f271ad 	addi.d      	$t1, $t1, -868(0xc9c)
   12000136c:	28bf92cc 	ld.w        	$t0, $fp, -28(0xfe4)
   120001370:	0041118c 	slli.d      	$t0, $t0, 0x4
   120001374:	0010b1ac 	add.d       	$t0, $t1, $t0
   120001378:	2880018c 	ld.w        	$t0, $t0, 0
   12000137c:	28bf72cd 	ld.w        	$t1, $fp, -36(0xfdc)
   120001380:	0014b1ac 	and         	$t0, $t1, $t0
   120001384:	40008980 	beqz        	$t0, 136(0x88)	# 12000140c <estr+0xdc>
/home/airxs/user/os/testsuites/testsuits-for-oskernel/libc-test/src/common/mtest.c:118
   120001388:	28bf82cc 	ld.w        	$t0, $fp, -32(0xfe0)
   12000138c:	40001180 	beqz        	$t0, 16(0x10)	# 12000139c <estr+0x6c>
/home/airxs/user/os/testsuites/testsuits-for-oskernel/libc-test/src/common/mtest.c:118 (discriminator 1)
   120001390:	1c0001ed 	pcaddu12i   	$t1, 15(0xf)
   120001394:	02fd21ad 	addi.d      	$t1, $t1, -184(0xf48)
   120001398:	50000c00 	b           	12(0xc)	# 1200013a4 <estr+0x74>
/home/airxs/user/os/testsuites/testsuits-for-oskernel/libc-test/src/common/mtest.c:118 (discriminator 2)
   12000139c:	1c0001ed 	pcaddu12i   	$t1, 15(0xf)
   1200013a0:	02fd11ad 	addi.d      	$t1, $t1, -188(0xf44)
/home/airxs/user/os/testsuites/testsuits-for-oskernel/libc-test/src/common/mtest.c:118 (discriminator 4)
   1200013a4:	1c0002ee 	pcaddu12i   	$t2, 23(0x17)
   1200013a8:	02f171ce 	addi.d      	$t2, $t2, -932(0xc5c)
   1200013ac:	28bf92cc 	ld.w        	$t0, $fp, -28(0xfe4)
   1200013b0:	0041118c 	slli.d      	$t0, $t0, 0x4
   1200013b4:	0010b1cc 	add.d       	$t0, $t2, $t0
   1200013b8:	28c0218c 	ld.d        	$t0, $t0, 8(0x8)
   1200013bc:	00150187 	move        	$a3, $t0
   1200013c0:	001501a6 	move        	$a2, $t1
   1200013c4:	1c0001e5 	pcaddu12i   	$a1, 15(0xf)
   1200013c8:	02fc90a5 	addi.d      	$a1, $a1, -220(0xf24)
   1200013cc:	28ffa2c4 	ld.d        	$a0, $fp, -24(0xfe8)
   1200013d0:	54764800 	bl          	30280(0x7648)	# 120008a18 <sprintf>
   1200013d4:	0015008c 	move        	$t0, $a0
   1200013d8:	0015018d 	move        	$t1, $t0
   1200013dc:	28ffa2cc 	ld.d        	$t0, $fp, -24(0xfe8)
   1200013e0:	0010b58c 	add.d       	$t0, $t0, $t1
   1200013e4:	29ffa2cc 	st.d        	$t0, $fp, -24(0xfe8)
/home/airxs/user/os/testsuites/testsuits-for-oskernel/libc-test/src/common/mtest.c:119 (discriminator 4)
   1200013e8:	1c0002ed 	pcaddu12i   	$t1, 23(0x17)
   1200013ec:	02f061ad 	addi.d      	$t1, $t1, -1000(0xc18)
   1200013f0:	28bf92cc 	ld.w        	$t0, $fp, -28(0xfe4)
   1200013f4:	0041118c 	slli.d      	$t0, $t0, 0x4
   1200013f8:	0010b1ac 	add.d       	$t0, $t1, $t0
   1200013fc:	2880018c 	ld.w        	$t0, $t0, 0
   120001400:	28bf82cd 	ld.w        	$t1, $fp, -32(0xfe0)
   120001404:	001531ac 	or          	$t0, $t1, $t0
   120001408:	29bf82cc 	st.w        	$t0, $fp, -32(0xfe0)
/home/airxs/user/os/testsuites/testsuits-for-oskernel/libc-test/src/common/mtest.c:116 (discriminator 2)
   12000140c:	28bf92cc 	ld.w        	$t0, $fp, -28(0xfe4)
   120001410:	0280058c 	addi.w      	$t0, $t0, 1(0x1)
   120001414:	29bf92cc 	st.w        	$t0, $fp, -28(0xfe4)
/home/airxs/user/os/testsuites/testsuits-for-oskernel/libc-test/src/common/mtest.c:116 (discriminator 1)
   120001418:	28bf92cc 	ld.w        	$t0, $fp, -28(0xfe4)
   12000141c:	0015018d 	move        	$t1, $t0
   120001420:	0280100c 	addi.w      	$t0, $zero, 4(0x4)
   120001424:	6fff418d 	bgeu        	$t0, $t1, -192(0x3ff40)	# 120001364 <estr+0x34>
/home/airxs/user/os/testsuites/testsuits-for-oskernel/libc-test/src/common/mtest.c:121
   120001428:	28bf82cd 	ld.w        	$t1, $fp, -32(0xfe0)
   12000142c:	28bf72cc 	ld.w        	$t0, $fp, -36(0xfdc)
   120001430:	580065ac 	beq         	$t1, $t0, 100(0x64)	# 120001494 <estr+0x164>
/home/airxs/user/os/testsuites/testsuits-for-oskernel/libc-test/src/common/mtest.c:122
   120001434:	28bf82cc 	ld.w        	$t0, $fp, -32(0xfe0)
   120001438:	40001180 	beqz        	$t0, 16(0x10)	# 120001448 <estr+0x118>
/home/airxs/user/os/testsuites/testsuits-for-oskernel/libc-test/src/common/mtest.c:122 (discriminator 1)
   12000143c:	1c0001ec 	pcaddu12i   	$t0, 15(0xf)
   120001440:	02fa718c 	addi.d      	$t0, $t0, -356(0xe9c)
   120001444:	50000c00 	b           	12(0xc)	# 120001450 <estr+0x120>
/home/airxs/user/os/testsuites/testsuits-for-oskernel/libc-test/src/common/mtest.c:122 (discriminator 2)
   120001448:	1c0001ec 	pcaddu12i   	$t0, 15(0xf)
   12000144c:	02fa618c 	addi.d      	$t0, $t0, -360(0xe98)
/home/airxs/user/os/testsuites/testsuits-for-oskernel/libc-test/src/common/mtest.c:122 (discriminator 4)
   120001450:	28bf82cd 	ld.w        	$t1, $fp, -32(0xfe0)
   120001454:	0014340d 	nor         	$t1, $zero, $t1
   120001458:	28bf72ce 	ld.w        	$t2, $fp, -36(0xfdc)
   12000145c:	0014b5cd 	and         	$t1, $t2, $t1
   120001460:	001501a7 	move        	$a3, $t1
   120001464:	00150186 	move        	$a2, $t0
   120001468:	1c0001e5 	pcaddu12i   	$a1, 15(0xf)
   12000146c:	02fa20a5 	addi.d      	$a1, $a1, -376(0xe88)
   120001470:	28ffa2c4 	ld.d        	$a0, $fp, -24(0xfe8)
   120001474:	5475a400 	bl          	30116(0x75a4)	# 120008a18 <sprintf>
   120001478:	0015008c 	move        	$t0, $a0
   12000147c:	0015018d 	move        	$t1, $t0
   120001480:	28ffa2cc 	ld.d        	$t0, $fp, -24(0xfe8)
   120001484:	0010b58c 	add.d       	$t0, $t0, $t1
   120001488:	29ffa2cc 	st.d        	$t0, $fp, -24(0xfe8)
/home/airxs/user/os/testsuites/testsuits-for-oskernel/libc-test/src/common/mtest.c:123 (discriminator 4)
   12000148c:	28bf72cc 	ld.w        	$t0, $fp, -36(0xfdc)
   120001490:	29bf82cc 	st.w        	$t0, $fp, -32(0xfe0)
/home/airxs/user/os/testsuites/testsuits-for-oskernel/libc-test/src/common/mtest.c:125
   120001494:	28bf82cc 	ld.w        	$t0, $fp, -32(0xfe0)
   120001498:	40001180 	beqz        	$t0, 16(0x10)	# 1200014a8 <estr+0x178>
/home/airxs/user/os/testsuites/testsuits-for-oskernel/libc-test/src/common/mtest.c:125 (discriminator 1)
   12000149c:	1c0001ec 	pcaddu12i   	$t0, 15(0xf)
   1200014a0:	02f9118c 	addi.d      	$t0, $t0, -444(0xe44)
   1200014a4:	50000c00 	b           	12(0xc)	# 1200014b0 <estr+0x180>
/home/airxs/user/os/testsuites/testsuits-for-oskernel/libc-test/src/common/mtest.c:125 (discriminator 2)
   1200014a8:	1c0001ec 	pcaddu12i   	$t0, 15(0xf)
   1200014ac:	02f9418c 	addi.d      	$t0, $t0, -432(0xe50)
/home/airxs/user/os/testsuites/testsuits-for-oskernel/libc-test/src/common/mtest.c:125 (discriminator 4)
   1200014b0:	00150186 	move        	$a2, $t0
   1200014b4:	1c0001e5 	pcaddu12i   	$a1, 15(0xf)
   1200014b8:	02f930a5 	addi.d      	$a1, $a1, -436(0xe4c)
   1200014bc:	28ffa2c4 	ld.d        	$a0, $fp, -24(0xfe8)
   1200014c0:	54755800 	bl          	30040(0x7558)	# 120008a18 <sprintf>
   1200014c4:	0015008c 	move        	$t0, $a0
   1200014c8:	0015018d 	move        	$t1, $t0
   1200014cc:	28ffa2cc 	ld.d        	$t0, $fp, -24(0xfe8)
   1200014d0:	0010b58c 	add.d       	$t0, $t0, $t1
   1200014d4:	29ffa2cc 	st.d        	$t0, $fp, -24(0xfe8)
/home/airxs/user/os/testsuites/testsuits-for-oskernel/libc-test/src/common/mtest.c:126 (discriminator 4)
   1200014d8:	1c0002ec 	pcaddu12i   	$t0, 23(0x17)
   1200014dc:	02f4c18c 	addi.d      	$t0, $t0, -720(0xd30)
/home/airxs/user/os/testsuites/testsuits-for-oskernel/libc-test/src/common/mtest.c:127 (discriminator 4)
   1200014e0:	00150184 	move        	$a0, $t0
   1200014e4:	28c0a061 	ld.d        	$ra, $sp, 40(0x28)
   1200014e8:	28c08076 	ld.d        	$fp, $sp, 32(0x20)
   1200014ec:	02c0c063 	addi.d      	$sp, $sp, 48(0x30)
   1200014f0:	4c000020 	jirl        	$zero, $ra, 0

00000001200014f4 <rstr>:
rstr():
/home/airxs/user/os/testsuites/testsuits-for-oskernel/libc-test/src/common/mtest.c:130
   1200014f4:	02ff8063 	addi.d      	$sp, $sp, -32(0xfe0)
   1200014f8:	29c06076 	st.d        	$fp, $sp, 24(0x18)
   1200014fc:	02c08076 	addi.d      	$fp, $sp, 32(0x20)
   120001500:	0015008c 	move        	$t0, $a0
   120001504:	0040818c 	slli.w      	$t0, $t0, 0x0
   120001508:	29bfb2cc 	st.w        	$t0, $fp, -20(0xfec)
/home/airxs/user/os/testsuites/testsuits-for-oskernel/libc-test/src/common/mtest.c:131
   12000150c:	28bfb2cc 	ld.w        	$t0, $fp, -20(0xfec)
   120001510:	0015018d 	move        	$t1, $t0
   120001514:	0284000c 	addi.w      	$t0, $zero, 256(0x100)
   120001518:	580051ac 	beq         	$t1, $t0, 80(0x50)	# 120001568 <rstr+0x74>
   12000151c:	28bfb2cc 	ld.w        	$t0, $fp, -20(0xfec)
   120001520:	0015018d 	move        	$t1, $t0
   120001524:	0284000c 	addi.w      	$t0, $zero, 256(0x100)
   120001528:	6000118d 	blt         	$t0, $t1, 16(0x10)	# 120001538 <rstr+0x44>
   12000152c:	28bfb2cc 	ld.w        	$t0, $fp, -20(0xfec)
   120001530:	40002d80 	beqz        	$t0, 44(0x2c)	# 12000155c <rstr+0x68>
   120001534:	50005800 	b           	88(0x58)	# 12000158c <rstr+0x98>
   120001538:	28bfb2cc 	ld.w        	$t0, $fp, -20(0xfec)
   12000153c:	0015018d 	move        	$t1, $t0
   120001540:	0288000c 	addi.w      	$t0, $zero, 512(0x200)
   120001544:	580031ac 	beq         	$t1, $t0, 48(0x30)	# 120001574 <rstr+0x80>
   120001548:	28bfb2cc 	ld.w        	$t0, $fp, -20(0xfec)
   12000154c:	0015018d 	move        	$t1, $t0
   120001550:	028c000c 	addi.w      	$t0, $zero, 768(0x300)
   120001554:	58002dac 	beq         	$t1, $t0, 44(0x2c)	# 120001580 <rstr+0x8c>
   120001558:	50003400 	b           	52(0x34)	# 12000158c <rstr+0x98>
/home/airxs/user/os/testsuites/testsuits-for-oskernel/libc-test/src/common/mtest.c:132
   12000155c:	1c0001ec 	pcaddu12i   	$t0, 15(0xf)
   120001560:	02f6b18c 	addi.d      	$t0, $t0, -596(0xdac)
   120001564:	50003000 	b           	48(0x30)	# 120001594 <rstr+0xa0>
/home/airxs/user/os/testsuites/testsuits-for-oskernel/libc-test/src/common/mtest.c:134
   120001568:	1c0001ec 	pcaddu12i   	$t0, 15(0xf)
   12000156c:	02f6a18c 	addi.d      	$t0, $t0, -600(0xda8)
   120001570:	50002400 	b           	36(0x24)	# 120001594 <rstr+0xa0>
/home/airxs/user/os/testsuites/testsuits-for-oskernel/libc-test/src/common/mtest.c:137
   120001574:	1c0001ec 	pcaddu12i   	$t0, 15(0xf)
   120001578:	02f6918c 	addi.d      	$t0, $t0, -604(0xda4)
   12000157c:	50001800 	b           	24(0x18)	# 120001594 <rstr+0xa0>
/home/airxs/user/os/testsuites/testsuits-for-oskernel/libc-test/src/common/mtest.c:140
   120001580:	1c0001ec 	pcaddu12i   	$t0, 15(0xf)
   120001584:	02f6818c 	addi.d      	$t0, $t0, -608(0xda0)
   120001588:	50000c00 	b           	12(0xc)	# 120001594 <rstr+0xa0>
/home/airxs/user/os/testsuites/testsuits-for-oskernel/libc-test/src/common/mtest.c:143
   12000158c:	1c0001ec 	pcaddu12i   	$t0, 15(0xf)
   120001590:	02f6718c 	addi.d      	$t0, $t0, -612(0xd9c)
/home/airxs/user/os/testsuites/testsuits-for-oskernel/libc-test/src/common/mtest.c:144
   120001594:	00150184 	move        	$a0, $t0
   120001598:	28c06076 	ld.d        	$fp, $sp, 24(0x18)
   12000159c:	02c08063 	addi.d      	$sp, $sp, 32(0x20)
   1200015a0:	4c000020 	jirl        	$zero, $ra, 0

00000001200015a4 <t_pathrel>:
t_pathrel():
/home/airxs/user/os/testsuites/testsuits-for-oskernel/libc-test/src/common/path.c:7
   1200015a4:	02ff0063 	addi.d      	$sp, $sp, -64(0xfc0)
   1200015a8:	29c0e061 	st.d        	$ra, $sp, 56(0x38)
   1200015ac:	29c0c076 	st.d        	$fp, $sp, 48(0x30)
   1200015b0:	02c10076 	addi.d      	$fp, $sp, 64(0x40)
   1200015b4:	29ff62c4 	st.d        	$a0, $fp, -40(0xfd8)
   1200015b8:	29ff42c5 	st.d        	$a1, $fp, -48(0xfd0)
   1200015bc:	29ff22c6 	st.d        	$a2, $fp, -56(0xfc8)
   1200015c0:	29ff02c7 	st.d        	$a3, $fp, -64(0xfc0)
/home/airxs/user/os/testsuites/testsuits-for-oskernel/libc-test/src/common/path.c:8
   1200015c4:	0280bc05 	addi.w      	$a1, $zero, 47(0x2f)
   1200015c8:	28ff22c4 	ld.d        	$a0, $fp, -56(0xfc8)
   1200015cc:	547ec400 	bl          	32452(0x7ec4)	# 120009490 <strrchr>
   1200015d0:	29ff82c4 	st.d        	$a0, $fp, -32(0xfe0)
/home/airxs/user/os/testsuites/testsuits-for-oskernel/libc-test/src/common/path.c:11
   1200015d4:	28ff82cc 	ld.d        	$t0, $fp, -32(0xfe0)
   1200015d8:	40004180 	beqz        	$t0, 64(0x40)	# 120001618 <t_pathrel+0x74>
/home/airxs/user/os/testsuites/testsuits-for-oskernel/libc-test/src/common/path.c:12
   1200015dc:	28ff82cd 	ld.d        	$t1, $fp, -32(0xfe0)
   1200015e0:	28ff22cc 	ld.d        	$t0, $fp, -56(0xfc8)
   1200015e4:	0011b1ac 	sub.d       	$t0, $t1, $t0
   1200015e8:	0040818c 	slli.w      	$t0, $t0, 0x0
   1200015ec:	28ff02c9 	ld.d        	$a5, $fp, -64(0xfc0)
   1200015f0:	28ff22c8 	ld.d        	$a4, $fp, -56(0xfc8)
   1200015f4:	00150187 	move        	$a3, $t0
   1200015f8:	1c0001e6 	pcaddu12i   	$a2, 15(0xf)
   1200015fc:	02f560c6 	addi.d      	$a2, $a2, -680(0xd58)
   120001600:	28ff42c5 	ld.d        	$a1, $fp, -48(0xfd0)
   120001604:	28ff62c4 	ld.d        	$a0, $fp, -40(0xfd8)
   120001608:	5473dc00 	bl          	29660(0x73dc)	# 1200089e4 <snprintf>
   12000160c:	0015008c 	move        	$t0, $a0
   120001610:	29bfb2cc 	st.w        	$t0, $fp, -20(0xfec)
   120001614:	50002400 	b           	36(0x24)	# 120001638 <t_pathrel+0x94>
/home/airxs/user/os/testsuites/testsuits-for-oskernel/libc-test/src/common/path.c:14
   120001618:	28ff02c7 	ld.d        	$a3, $fp, -64(0xfc0)
   12000161c:	1c0001e6 	pcaddu12i   	$a2, 15(0xf)
   120001620:	02f4f0c6 	addi.d      	$a2, $a2, -708(0xd3c)
   120001624:	28ff42c5 	ld.d        	$a1, $fp, -48(0xfd0)
   120001628:	28ff62c4 	ld.d        	$a0, $fp, -40(0xfd8)
   12000162c:	5473b800 	bl          	29624(0x73b8)	# 1200089e4 <snprintf>
   120001630:	0015008c 	move        	$t0, $a0
   120001634:	29bfb2cc 	st.w        	$t0, $fp, -20(0xfec)
/home/airxs/user/os/testsuites/testsuits-for-oskernel/libc-test/src/common/path.c:15
   120001638:	28bfb2cc 	ld.w        	$t0, $fp, -20(0xfec)
   12000163c:	28ff42cd 	ld.d        	$t1, $fp, -48(0xfd0)
   120001640:	68000d8d 	bltu        	$t0, $t1, 12(0xc)	# 12000164c <t_pathrel+0xa8>
/home/airxs/user/os/testsuites/testsuits-for-oskernel/libc-test/src/common/path.c:16
   120001644:	0015000c 	move        	$t0, $zero
   120001648:	50000800 	b           	8(0x8)	# 120001650 <t_pathrel+0xac>
/home/airxs/user/os/testsuites/testsuits-for-oskernel/libc-test/src/common/path.c:17
   12000164c:	28ff62cc 	ld.d        	$t0, $fp, -40(0xfd8)
/home/airxs/user/os/testsuites/testsuits-for-oskernel/libc-test/src/common/path.c:18
   120001650:	00150184 	move        	$a0, $t0
   120001654:	28c0e061 	ld.d        	$ra, $sp, 56(0x38)
   120001658:	28c0c076 	ld.d        	$fp, $sp, 48(0x30)
   12000165c:	02c10063 	addi.d      	$sp, $sp, 64(0x40)
   120001660:	4c000020 	jirl        	$zero, $ra, 0

0000000120001664 <t_printf>:
t_printf():
/home/airxs/user/os/testsuites/testsuits-for-oskernel/libc-test/src/common/print.c:9
   120001664:	02f64063 	addi.d      	$sp, $sp, -624(0xd90)
   120001668:	29c8a061 	st.d        	$ra, $sp, 552(0x228)
   12000166c:	29c88076 	st.d        	$fp, $sp, 544(0x220)
   120001670:	02c8c076 	addi.d      	$fp, $sp, 560(0x230)
   120001674:	29f762c4 	st.d        	$a0, $fp, -552(0xdd8)
   120001678:	29c022c5 	st.d        	$a1, $fp, 8(0x8)
   12000167c:	29c042c6 	st.d        	$a2, $fp, 16(0x10)
   120001680:	29c062c7 	st.d        	$a3, $fp, 24(0x18)
   120001684:	29c082c8 	st.d        	$a4, $fp, 32(0x20)
   120001688:	29c0a2c9 	st.d        	$a5, $fp, 40(0x28)
   12000168c:	29c0c2ca 	st.d        	$a6, $fp, 48(0x30)
   120001690:	29c0e2cb 	st.d        	$a7, $fp, 56(0x38)
/home/airxs/user/os/testsuites/testsuits-for-oskernel/libc-test/src/common/print.c:14
   120001694:	1c0002ec 	pcaddu12i   	$t0, 23(0x17)
   120001698:	02f1d18c 	addi.d      	$t0, $t0, -908(0xc74)
   12000169c:	0280040d 	addi.w      	$t1, $zero, 1(0x1)
   1200016a0:	2980018d 	st.w        	$t1, $t0, 0
/home/airxs/user/os/testsuites/testsuits-for-oskernel/libc-test/src/common/print.c:15
   1200016a4:	02c102cc 	addi.d      	$t0, $fp, 64(0x40)
   1200016a8:	02ff218c 	addi.d      	$t0, $t0, -56(0xfc8)
   1200016ac:	29ff82cc 	st.d        	$t0, $fp, -32(0xfe0)
/home/airxs/user/os/testsuites/testsuits-for-oskernel/libc-test/src/common/print.c:16
   1200016b0:	28ff82cc 	ld.d        	$t0, $fp, -32(0xfe0)
   1200016b4:	02f782cd 	addi.d      	$t1, $fp, -544(0xde0)
   1200016b8:	00150187 	move        	$a3, $t0
   1200016bc:	28f762c6 	ld.d        	$a2, $fp, -552(0xdd8)
   1200016c0:	02880005 	addi.w      	$a1, $zero, 512(0x200)
   1200016c4:	001501a4 	move        	$a0, $t1
   1200016c8:	54747c00 	bl          	29820(0x747c)	# 120008b44 <vsnprintf>
   1200016cc:	0015008c 	move        	$t0, $a0
   1200016d0:	29bfb2cc 	st.w        	$t0, $fp, -20(0xfec)
/home/airxs/user/os/testsuites/testsuits-for-oskernel/libc-test/src/common/print.c:18
   1200016d4:	28bfb2cc 	ld.w        	$t0, $fp, -20(0xfec)
   1200016d8:	64000d80 	bge         	$t0, $zero, 12(0xc)	# 1200016e4 <t_printf+0x80>
/home/airxs/user/os/testsuites/testsuits-for-oskernel/libc-test/src/common/print.c:19
   1200016dc:	29bfb2c0 	st.w        	$zero, $fp, -20(0xfec)
   1200016e0:	50007c00 	b           	124(0x7c)	# 12000175c <t_printf+0xf8>
/home/airxs/user/os/testsuites/testsuits-for-oskernel/libc-test/src/common/print.c:20
   1200016e4:	28bfb2cc 	ld.w        	$t0, $fp, -20(0xfec)
   1200016e8:	0015018d 	move        	$t1, $t0
   1200016ec:	0287fc0c 	addi.w      	$t0, $zero, 511(0x1ff)
   1200016f0:	6c006d8d 	bgeu        	$t0, $t1, 108(0x6c)	# 12000175c <t_printf+0xf8>
/home/airxs/user/os/testsuites/testsuits-for-oskernel/libc-test/src/common/print.c:21
   1200016f4:	0288000c 	addi.w      	$t0, $zero, 512(0x200)
   1200016f8:	29bfb2cc 	st.w        	$t0, $fp, -20(0xfec)
/home/airxs/user/os/testsuites/testsuits-for-oskernel/libc-test/src/common/print.c:22
   1200016fc:	28bfb2cc 	ld.w        	$t0, $fp, -20(0xfec)
   120001700:	02bffd8c 	addi.w      	$t0, $t0, -1(0xfff)
   120001704:	02ffc2cd 	addi.d      	$t1, $fp, -16(0xff0)
   120001708:	0010b1ad 	add.d       	$t1, $t1, $t0
   12000170c:	0280280c 	addi.w      	$t0, $zero, 10(0xa)
   120001710:	2937c1ac 	st.b        	$t0, $t1, -528(0xdf0)
/home/airxs/user/os/testsuites/testsuits-for-oskernel/libc-test/src/common/print.c:23
   120001714:	28bfb2cc 	ld.w        	$t0, $fp, -20(0xfec)
   120001718:	02bff98c 	addi.w      	$t0, $t0, -2(0xffe)
   12000171c:	02ffc2cd 	addi.d      	$t1, $fp, -16(0xff0)
   120001720:	0010b1ad 	add.d       	$t1, $t1, $t0
   120001724:	0280b80c 	addi.w      	$t0, $zero, 46(0x2e)
   120001728:	2937c1ac 	st.b        	$t0, $t1, -528(0xdf0)
/home/airxs/user/os/testsuites/testsuits-for-oskernel/libc-test/src/common/print.c:24
   12000172c:	28bfb2cc 	ld.w        	$t0, $fp, -20(0xfec)
   120001730:	02bff58c 	addi.w      	$t0, $t0, -3(0xffd)
   120001734:	02ffc2cd 	addi.d      	$t1, $fp, -16(0xff0)
   120001738:	0010b1ad 	add.d       	$t1, $t1, $t0
   12000173c:	0280b80c 	addi.w      	$t0, $zero, 46(0x2e)
   120001740:	2937c1ac 	st.b        	$t0, $t1, -528(0xdf0)
/home/airxs/user/os/testsuites/testsuits-for-oskernel/libc-test/src/common/print.c:25
   120001744:	28bfb2cc 	ld.w        	$t0, $fp, -20(0xfec)
   120001748:	02bff18c 	addi.w      	$t0, $t0, -4(0xffc)
   12000174c:	02ffc2cd 	addi.d      	$t1, $fp, -16(0xff0)
   120001750:	0010b1ad 	add.d       	$t1, $t1, $t0
   120001754:	0280b80c 	addi.w      	$t0, $zero, 46(0x2e)
   120001758:	2937c1ac 	st.b        	$t0, $t1, -528(0xdf0)
/home/airxs/user/os/testsuites/testsuits-for-oskernel/libc-test/src/common/print.c:27
   12000175c:	28bfb2cc 	ld.w        	$t0, $fp, -20(0xfec)
   120001760:	02f782cd 	addi.d      	$t1, $fp, -544(0xde0)
   120001764:	00150186 	move        	$a2, $t0
   120001768:	001501a5 	move        	$a1, $t1
   12000176c:	02800404 	addi.w      	$a0, $zero, 1(0x1)
   120001770:	54868800 	bl          	34440(0x8688)	# 120009df8 <write>
   120001774:	0015008c 	move        	$t0, $a0
   120001778:	0040818c 	slli.w      	$t0, $t0, 0x0
/home/airxs/user/os/testsuites/testsuits-for-oskernel/libc-test/src/common/print.c:28
   12000177c:	00150184 	move        	$a0, $t0
   120001780:	28c8a061 	ld.d        	$ra, $sp, 552(0x228)
   120001784:	28c88076 	ld.d        	$fp, $sp, 544(0x220)
   120001788:	02c9c063 	addi.d      	$sp, $sp, 624(0x270)
   12000178c:	4c000020 	jirl        	$zero, $ra, 0

0000000120001790 <rand32>:
rand32():
/home/airxs/user/os/testsuites/testsuits-for-oskernel/libc-test/src/common/rand.c:8
   120001790:	02ffc063 	addi.d      	$sp, $sp, -16(0xff0)
   120001794:	29c02076 	st.d        	$fp, $sp, 8(0x8)
   120001798:	02c04076 	addi.d      	$fp, $sp, 16(0x10)
/home/airxs/user/os/testsuites/testsuits-for-oskernel/libc-test/src/common/rand.c:9
   12000179c:	1c0002ec 	pcaddu12i   	$t0, 23(0x17)
   1200017a0:	02e2d18c 	addi.d      	$t0, $t0, -1868(0x8b4)
   1200017a4:	28c0018d 	ld.d        	$t1, $t0, 0
   1200017a8:	14992aec 	lu12i.w     	$t0, 313687(0x4c957)
   1200017ac:	03bcb58c 	ori         	$t0, $t0, 0xf2d
   1200017b0:	163e85ac 	lu32i.d     	$t0, 128045(0x1f42d)
   1200017b4:	0316158c 	lu52i.d     	$t0, $t0, 1413(0x585)
   1200017b8:	001db1ac 	mul.d       	$t0, $t1, $t0
   1200017bc:	02c0058d 	addi.d      	$t1, $t0, 1(0x1)
   1200017c0:	1c0002ec 	pcaddu12i   	$t0, 23(0x17)
   1200017c4:	02e2418c 	addi.d      	$t0, $t0, -1904(0x890)
   1200017c8:	29c0018d 	st.d        	$t1, $t0, 0
/home/airxs/user/os/testsuites/testsuits-for-oskernel/libc-test/src/common/rand.c:10
   1200017cc:	1c0002ec 	pcaddu12i   	$t0, 23(0x17)
   1200017d0:	02e2118c 	addi.d      	$t0, $t0, -1916(0x884)
   1200017d4:	28c0018c 	ld.d        	$t0, $t0, 0
   1200017d8:	0045818c 	srli.d      	$t0, $t0, 0x20
   1200017dc:	0040818c 	slli.w      	$t0, $t0, 0x0
/home/airxs/user/os/testsuites/testsuits-for-oskernel/libc-test/src/common/rand.c:11
   1200017e0:	00150184 	move        	$a0, $t0
   1200017e4:	28c02076 	ld.d        	$fp, $sp, 8(0x8)
   1200017e8:	02c04063 	addi.d      	$sp, $sp, 16(0x10)
   1200017ec:	4c000020 	jirl        	$zero, $ra, 0

00000001200017f0 <rand64>:
rand64():
/home/airxs/user/os/testsuites/testsuits-for-oskernel/libc-test/src/common/rand.c:13
   1200017f0:	02ff4063 	addi.d      	$sp, $sp, -48(0xfd0)
   1200017f4:	29c0a061 	st.d        	$ra, $sp, 40(0x28)
   1200017f8:	29c08076 	st.d        	$fp, $sp, 32(0x20)
   1200017fc:	29c06077 	st.d        	$s0, $sp, 24(0x18)
   120001800:	02c0c076 	addi.d      	$fp, $sp, 48(0x30)
/home/airxs/user/os/testsuites/testsuits-for-oskernel/libc-test/src/common/rand.c:14
   120001804:	57ff8fff 	bl          	-116(0xfffff8c)	# 120001790 <rand32>
   120001808:	0015008c 	move        	$t0, $a0
   12000180c:	00df018c 	bstrpick.d  	$t0, $t0, 0x1f, 0x0
   120001810:	29ff62cc 	st.d        	$t0, $fp, -40(0xfd8)
/home/airxs/user/os/testsuites/testsuits-for-oskernel/libc-test/src/common/rand.c:15
   120001814:	28ff62cc 	ld.d        	$t0, $fp, -40(0xfd8)
   120001818:	00418197 	slli.d      	$s0, $t0, 0x20
   12000181c:	57ff77ff 	bl          	-140(0xfffff74)	# 120001790 <rand32>
   120001820:	0015008c 	move        	$t0, $a0
   120001824:	00df018c 	bstrpick.d  	$t0, $t0, 0x1f, 0x0
   120001828:	001532ec 	or          	$t0, $s0, $t0
/home/airxs/user/os/testsuites/testsuits-for-oskernel/libc-test/src/common/rand.c:16
   12000182c:	00150184 	move        	$a0, $t0
   120001830:	28c0a061 	ld.d        	$ra, $sp, 40(0x28)
   120001834:	28c08076 	ld.d        	$fp, $sp, 32(0x20)
   120001838:	28c06077 	ld.d        	$s0, $sp, 24(0x18)
   12000183c:	02c0c063 	addi.d      	$sp, $sp, 48(0x30)
   120001840:	4c000020 	jirl        	$zero, $ra, 0

0000000120001844 <frand>:
frand():
/home/airxs/user/os/testsuites/testsuits-for-oskernel/libc-test/src/common/rand.c:18
   120001844:	02ffc063 	addi.d      	$sp, $sp, -16(0xff0)
   120001848:	29c02061 	st.d        	$ra, $sp, 8(0x8)
   12000184c:	29c00076 	st.d        	$fp, $sp, 0
   120001850:	02c04076 	addi.d      	$fp, $sp, 16(0x10)
/home/airxs/user/os/testsuites/testsuits-for-oskernel/libc-test/src/common/rand.c:19
   120001854:	57ff9fff 	bl          	-100(0xfffff9c)	# 1200017f0 <rand64>
   120001858:	0015008c 	move        	$t0, $a0
   12000185c:	60001180 	blt         	$t0, $zero, 16(0x10)	# 12000186c <frand+0x28>
   120001860:	0114a980 	movgr2fr.d  	$fa0, $t0
   120001864:	011d2800 	ffint.d.l   	$fa0, $fa0
   120001868:	50001c00 	b           	28(0x1c)	# 120001884 <frand+0x40>
   12000186c:	0340058d 	andi        	$t1, $t0, 0x1
   120001870:	0045058c 	srli.d      	$t0, $t0, 0x1
   120001874:	001531ad 	or          	$t1, $t1, $t0
   120001878:	0114a9a0 	movgr2fr.d  	$fa0, $t1
   12000187c:	011d2800 	ffint.d.l   	$fa0, $fa0
   120001880:	01010000 	fadd.d      	$fa0, $fa0, $fa0
   120001884:	1c0001ec 	pcaddu12i   	$t0, 15(0xf)
   120001888:	02eb718c 	addi.d      	$t0, $t0, -1316(0xadc)
   12000188c:	2b800181 	fld.d       	$fa1, $t0, 0
   120001890:	01050400 	fmul.d      	$fa0, $fa0, $fa1
/home/airxs/user/os/testsuites/testsuits-for-oskernel/libc-test/src/common/rand.c:20
   120001894:	28c02061 	ld.d        	$ra, $sp, 8(0x8)
   120001898:	28c00076 	ld.d        	$fp, $sp, 0
   12000189c:	02c04063 	addi.d      	$sp, $sp, 16(0x10)
   1200018a0:	4c000020 	jirl        	$zero, $ra, 0

00000001200018a4 <frandf>:
frandf():
/home/airxs/user/os/testsuites/testsuits-for-oskernel/libc-test/src/common/rand.c:22
   1200018a4:	02ffc063 	addi.d      	$sp, $sp, -16(0xff0)
   1200018a8:	29c02061 	st.d        	$ra, $sp, 8(0x8)
   1200018ac:	29c00076 	st.d        	$fp, $sp, 0
   1200018b0:	02c04076 	addi.d      	$fp, $sp, 16(0x10)
/home/airxs/user/os/testsuites/testsuits-for-oskernel/libc-test/src/common/rand.c:23
   1200018b4:	57fedfff 	bl          	-292(0xffffedc)	# 120001790 <rand32>
   1200018b8:	0015008c 	move        	$t0, $a0
   1200018bc:	00df018c 	bstrpick.d  	$t0, $t0, 0x1f, 0x0
   1200018c0:	0114a980 	movgr2fr.d  	$fa0, $t0
   1200018c4:	011d1801 	ffint.s.l   	$fa1, $fa0
   1200018c8:	1c0001ec 	pcaddu12i   	$t0, 15(0xf)
   1200018cc:	02ea818c 	addi.d      	$t0, $t0, -1376(0xaa0)
   1200018d0:	2b000180 	fld.s       	$fa0, $t0, 0
   1200018d4:	01048020 	fmul.s      	$fa0, $fa1, $fa0
/home/airxs/user/os/testsuites/testsuits-for-oskernel/libc-test/src/common/rand.c:24
   1200018d8:	28c02061 	ld.d        	$ra, $sp, 8(0x8)
   1200018dc:	28c00076 	ld.d        	$fp, $sp, 0
   1200018e0:	02c04063 	addi.d      	$sp, $sp, 16(0x10)
   1200018e4:	4c000020 	jirl        	$zero, $ra, 0

00000001200018e8 <frandl>:
frandl():
/home/airxs/user/os/testsuites/testsuits-for-oskernel/libc-test/src/common/rand.c:26
   1200018e8:	02ff8063 	addi.d      	$sp, $sp, -32(0xfe0)
   1200018ec:	29c06061 	st.d        	$ra, $sp, 24(0x18)
   1200018f0:	29c04076 	st.d        	$fp, $sp, 16(0x10)
   1200018f4:	29c02078 	st.d        	$s1, $sp, 8(0x8)
   1200018f8:	29c00079 	st.d        	$s2, $sp, 0
   1200018fc:	02c08076 	addi.d      	$fp, $sp, 32(0x20)
/home/airxs/user/os/testsuites/testsuits-for-oskernel/libc-test/src/common/rand.c:27
   120001900:	57fef3ff 	bl          	-272(0xffffef0)	# 1200017f0 <rand64>
   120001904:	0015008c 	move        	$t0, $a0
   120001908:	00150184 	move        	$a0, $t0
   12000190c:	542b0400 	bl          	11012(0x2b04)	# 120004410 <__floatunditf>
   120001910:	0015008e 	move        	$t2, $a0
   120001914:	001500af 	move        	$t3, $a1
   120001918:	1c0001ec 	pcaddu12i   	$t0, 15(0xf)
   12000191c:	02e9618c 	addi.d      	$t0, $t0, -1448(0xa58)
   120001920:	28c00186 	ld.d        	$a2, $t0, 0
   120001924:	28c02187 	ld.d        	$a3, $t0, 8(0x8)
   120001928:	001501c4 	move        	$a0, $t2
   12000192c:	001501e5 	move        	$a1, $t3
   120001930:	541cf000 	bl          	7408(0x1cf0)	# 120003620 <__multf3>
   120001934:	0015008c 	move        	$t0, $a0
   120001938:	001500ad 	move        	$t1, $a1
   12000193c:	00150098 	move        	$s1, $a0
   120001940:	001500b9 	move        	$s2, $a1
/home/airxs/user/os/testsuites/testsuits-for-oskernel/libc-test/src/common/rand.c:29
   120001944:	57feafff 	bl          	-340(0xffffeac)	# 1200017f0 <rand64>
   120001948:	0015008c 	move        	$t0, $a0
   12000194c:	00150184 	move        	$a0, $t0
   120001950:	542ac000 	bl          	10944(0x2ac0)	# 120004410 <__floatunditf>
   120001954:	0015008e 	move        	$t2, $a0
   120001958:	001500af 	move        	$t3, $a1
   12000195c:	1c0001ec 	pcaddu12i   	$t0, 15(0xf)
   120001960:	02e8918c 	addi.d      	$t0, $t0, -1500(0xa24)
   120001964:	28c00186 	ld.d        	$a2, $t0, 0
   120001968:	28c02187 	ld.d        	$a3, $t0, 8(0x8)
   12000196c:	001501c4 	move        	$a0, $t2
   120001970:	001501e5 	move        	$a1, $t3
   120001974:	541cac00 	bl          	7340(0x1cac)	# 120003620 <__multf3>
   120001978:	0015008c 	move        	$t0, $a0
   12000197c:	001500ad 	move        	$t1, $a1
   120001980:	00150186 	move        	$a2, $t0
   120001984:	001501a7 	move        	$a3, $t1
   120001988:	00150304 	move        	$a0, $s1
   12000198c:	00150325 	move        	$a1, $s2
   120001990:	540ba000 	bl          	2976(0xba0)	# 120002530 <__addtf3>
   120001994:	0015008c 	move        	$t0, $a0
   120001998:	001500ad 	move        	$t1, $a1
/home/airxs/user/os/testsuites/testsuits-for-oskernel/libc-test/src/common/rand.c:32
   12000199c:	00150184 	move        	$a0, $t0
   1200019a0:	001501a5 	move        	$a1, $t1
   1200019a4:	28c06061 	ld.d        	$ra, $sp, 24(0x18)
   1200019a8:	28c04076 	ld.d        	$fp, $sp, 16(0x10)
   1200019ac:	28c02078 	ld.d        	$s1, $sp, 8(0x8)
   1200019b0:	28c00079 	ld.d        	$s2, $sp, 0
   1200019b4:	02c08063 	addi.d      	$sp, $sp, 32(0x20)
   1200019b8:	4c000020 	jirl        	$zero, $ra, 0

00000001200019bc <t_randseed>:
t_randseed():
/home/airxs/user/os/testsuites/testsuits-for-oskernel/libc-test/src/common/rand.c:35
   1200019bc:	02ff8063 	addi.d      	$sp, $sp, -32(0xfe0)
   1200019c0:	29c06076 	st.d        	$fp, $sp, 24(0x18)
   1200019c4:	02c08076 	addi.d      	$fp, $sp, 32(0x20)
   1200019c8:	29ffa2c4 	st.d        	$a0, $fp, -24(0xfe8)
/home/airxs/user/os/testsuites/testsuits-for-oskernel/libc-test/src/common/rand.c:36
   1200019cc:	1c0002cc 	pcaddu12i   	$t0, 22(0x16)
   1200019d0:	02da118c 	addi.d      	$t0, $t0, 1668(0x684)
   1200019d4:	28ffa2cd 	ld.d        	$t1, $fp, -24(0xfe8)
   1200019d8:	29c0018d 	st.d        	$t1, $t0, 0
/home/airxs/user/os/testsuites/testsuits-for-oskernel/libc-test/src/common/rand.c:37
   1200019dc:	03400000 	andi        	$zero, $zero, 0x0
   1200019e0:	28c06076 	ld.d        	$fp, $sp, 24(0x18)
   1200019e4:	02c08063 	addi.d      	$sp, $sp, 32(0x20)
   1200019e8:	4c000020 	jirl        	$zero, $ra, 0

00000001200019ec <t_randn>:
t_randn():
/home/airxs/user/os/testsuites/testsuits-for-oskernel/libc-test/src/common/rand.c:41
   1200019ec:	02ff4063 	addi.d      	$sp, $sp, -48(0xfd0)
   1200019f0:	29c0a061 	st.d        	$ra, $sp, 40(0x28)
   1200019f4:	29c08076 	st.d        	$fp, $sp, 32(0x20)
   1200019f8:	02c0c076 	addi.d      	$fp, $sp, 48(0x30)
   1200019fc:	29ff62c4 	st.d        	$a0, $fp, -40(0xfd8)
/home/airxs/user/os/testsuites/testsuits-for-oskernel/libc-test/src/common/rand.c:45
   120001a00:	02bffc0c 	addi.w      	$t0, $zero, -1(0xfff)
   120001a04:	29ffa2cc 	st.d        	$t0, $fp, -24(0xfe8)
/home/airxs/user/os/testsuites/testsuits-for-oskernel/libc-test/src/common/rand.c:46
   120001a08:	28ffa2ce 	ld.d        	$t2, $fp, -24(0xfe8)
   120001a0c:	28ff62cd 	ld.d        	$t1, $fp, -40(0xfd8)
   120001a10:	0023b5cc 	mod.du      	$t0, $t2, $t1
   120001a14:	5c0009a0 	bne         	$t1, $zero, 8(0x8)	# 120001a1c <t_randn+0x30>
   120001a18:	002a0007 	break       	0x7
   120001a1c:	28ffa2cd 	ld.d        	$t1, $fp, -24(0xfe8)
   120001a20:	0011b1ac 	sub.d       	$t0, $t1, $t0
   120001a24:	29ffa2cc 	st.d        	$t0, $fp, -24(0xfe8)
/home/airxs/user/os/testsuites/testsuits-for-oskernel/libc-test/src/common/rand.c:47
   120001a28:	03400000 	andi        	$zero, $zero, 0x0
/home/airxs/user/os/testsuites/testsuits-for-oskernel/libc-test/src/common/rand.c:47 (discriminator 1)
   120001a2c:	57fdc7ff 	bl          	-572(0xffffdc4)	# 1200017f0 <rand64>
   120001a30:	29ff82c4 	st.d        	$a0, $fp, -32(0xfe0)
   120001a34:	28ff82cd 	ld.d        	$t1, $fp, -32(0xfe0)
   120001a38:	28ffa2cc 	ld.d        	$t0, $fp, -24(0xfe8)
   120001a3c:	6ffff1ac 	bgeu        	$t1, $t0, -16(0x3fff0)	# 120001a2c <t_randn+0x40>
/home/airxs/user/os/testsuites/testsuits-for-oskernel/libc-test/src/common/rand.c:48
   120001a40:	28ff82cd 	ld.d        	$t1, $fp, -32(0xfe0)
   120001a44:	28ff62cc 	ld.d        	$t0, $fp, -40(0xfd8)
   120001a48:	0023b1ae 	mod.du      	$t2, $t1, $t0
   120001a4c:	5c000980 	bne         	$t0, $zero, 8(0x8)	# 120001a54 <t_randn+0x68>
   120001a50:	002a0007 	break       	0x7
   120001a54:	001501cc 	move        	$t0, $t2
/home/airxs/user/os/testsuites/testsuits-for-oskernel/libc-test/src/common/rand.c:49
   120001a58:	00150184 	move        	$a0, $t0
   120001a5c:	28c0a061 	ld.d        	$ra, $sp, 40(0x28)
   120001a60:	28c08076 	ld.d        	$fp, $sp, 32(0x20)
   120001a64:	02c0c063 	addi.d      	$sp, $sp, 48(0x30)
   120001a68:	4c000020 	jirl        	$zero, $ra, 0

0000000120001a6c <t_randint>:
t_randint():
/home/airxs/user/os/testsuites/testsuits-for-oskernel/libc-test/src/common/rand.c:53
   120001a6c:	02ff4063 	addi.d      	$sp, $sp, -48(0xfd0)
   120001a70:	29c0a061 	st.d        	$ra, $sp, 40(0x28)
   120001a74:	29c08076 	st.d        	$fp, $sp, 32(0x20)
   120001a78:	02c0c076 	addi.d      	$fp, $sp, 48(0x30)
   120001a7c:	29ff62c4 	st.d        	$a0, $fp, -40(0xfd8)
   120001a80:	29ff42c5 	st.d        	$a1, $fp, -48(0xfd0)
/home/airxs/user/os/testsuites/testsuits-for-oskernel/libc-test/src/common/rand.c:54
   120001a84:	28ff42cd 	ld.d        	$t1, $fp, -48(0xfd0)
   120001a88:	28ff62cc 	ld.d        	$t0, $fp, -40(0xfd8)
   120001a8c:	0011b1ac 	sub.d       	$t0, $t1, $t0
   120001a90:	02c0058c 	addi.d      	$t0, $t0, 1(0x1)
   120001a94:	29ffa2cc 	st.d        	$t0, $fp, -24(0xfe8)
/home/airxs/user/os/testsuites/testsuits-for-oskernel/libc-test/src/common/rand.c:55
   120001a98:	28ffa2cc 	ld.d        	$t0, $fp, -24(0xfe8)
   120001a9c:	40001d80 	beqz        	$t0, 28(0x1c)	# 120001ab8 <t_randint+0x4c>
/home/airxs/user/os/testsuites/testsuits-for-oskernel/libc-test/src/common/rand.c:56
   120001aa0:	28ffa2c4 	ld.d        	$a0, $fp, -24(0xfe8)
   120001aa4:	57ff4bff 	bl          	-184(0xfffff48)	# 1200019ec <t_randn>
   120001aa8:	0015008d 	move        	$t1, $a0
   120001aac:	28ff62cc 	ld.d        	$t0, $fp, -40(0xfd8)
   120001ab0:	0010b1ac 	add.d       	$t0, $t1, $t0
   120001ab4:	50000c00 	b           	12(0xc)	# 120001ac0 <t_randint+0x54>
/home/airxs/user/os/testsuites/testsuits-for-oskernel/libc-test/src/common/rand.c:57
   120001ab8:	57fd3bff 	bl          	-712(0xffffd38)	# 1200017f0 <rand64>
   120001abc:	0015008c 	move        	$t0, $a0
/home/airxs/user/os/testsuites/testsuits-for-oskernel/libc-test/src/common/rand.c:58
   120001ac0:	00150184 	move        	$a0, $t0
   120001ac4:	28c0a061 	ld.d        	$ra, $sp, 40(0x28)
   120001ac8:	28c08076 	ld.d        	$fp, $sp, 32(0x20)
   120001acc:	02c0c063 	addi.d      	$sp, $sp, 48(0x30)
   120001ad0:	4c000020 	jirl        	$zero, $ra, 0

0000000120001ad4 <shuffle2>:
shuffle2():
/home/airxs/user/os/testsuites/testsuits-for-oskernel/libc-test/src/common/rand.c:62
   120001ad4:	02ff0063 	addi.d      	$sp, $sp, -64(0xfc0)
   120001ad8:	29c0e061 	st.d        	$ra, $sp, 56(0x38)
   120001adc:	29c0c076 	st.d        	$fp, $sp, 48(0x30)
   120001ae0:	02c10076 	addi.d      	$fp, $sp, 64(0x40)
   120001ae4:	29ff62c4 	st.d        	$a0, $fp, -40(0xfd8)
   120001ae8:	29ff42c5 	st.d        	$a1, $fp, -48(0xfd0)
   120001aec:	29ff22c6 	st.d        	$a2, $fp, -56(0xfc8)
   120001af0:	29ff02c7 	st.d        	$a3, $fp, -64(0xfc0)
/home/airxs/user/os/testsuites/testsuits-for-oskernel/libc-test/src/common/rand.c:66
   120001af4:	5000dc00 	b           	220(0xdc)	# 120001bd0 <shuffle2+0xfc>
/home/airxs/user/os/testsuites/testsuits-for-oskernel/libc-test/src/common/rand.c:67
   120001af8:	28ff22cc 	ld.d        	$t0, $fp, -56(0xfc8)
   120001afc:	02fffd8d 	addi.d      	$t1, $t0, -1(0xfff)
   120001b00:	29ff22cd 	st.d        	$t1, $fp, -56(0xfc8)
   120001b04:	28ff02cd 	ld.d        	$t1, $fp, -64(0xfc0)
   120001b08:	0010b58c 	add.d       	$t0, $t0, $t1
   120001b0c:	00150184 	move        	$a0, $t0
   120001b10:	57fedfff 	bl          	-292(0xffffedc)	# 1200019ec <t_randn>
   120001b14:	29ffa2c4 	st.d        	$a0, $fp, -24(0xfe8)
/home/airxs/user/os/testsuites/testsuits-for-oskernel/libc-test/src/common/rand.c:68
   120001b18:	28ff22cc 	ld.d        	$t0, $fp, -56(0xfc8)
   120001b1c:	00410d8c 	slli.d      	$t0, $t0, 0x3
   120001b20:	28ff62cd 	ld.d        	$t1, $fp, -40(0xfd8)
   120001b24:	0010b1ac 	add.d       	$t0, $t1, $t0
   120001b28:	28c0018c 	ld.d        	$t0, $t0, 0
   120001b2c:	29ff82cc 	st.d        	$t0, $fp, -32(0xfe0)
/home/airxs/user/os/testsuites/testsuits-for-oskernel/libc-test/src/common/rand.c:69
   120001b30:	28ffa2cd 	ld.d        	$t1, $fp, -24(0xfe8)
   120001b34:	28ff02cc 	ld.d        	$t0, $fp, -64(0xfc0)
   120001b38:	6c0049ac 	bgeu        	$t1, $t0, 72(0x48)	# 120001b80 <shuffle2+0xac>
/home/airxs/user/os/testsuites/testsuits-for-oskernel/libc-test/src/common/rand.c:70
   120001b3c:	28ffa2cc 	ld.d        	$t0, $fp, -24(0xfe8)
   120001b40:	00410d8c 	slli.d      	$t0, $t0, 0x3
   120001b44:	28ff42cd 	ld.d        	$t1, $fp, -48(0xfd0)
   120001b48:	0010b1ad 	add.d       	$t1, $t1, $t0
   120001b4c:	28ff22cc 	ld.d        	$t0, $fp, -56(0xfc8)
   120001b50:	00410d8c 	slli.d      	$t0, $t0, 0x3
   120001b54:	28ff62ce 	ld.d        	$t2, $fp, -40(0xfd8)
   120001b58:	0010b1cc 	add.d       	$t0, $t2, $t0
   120001b5c:	28c001ad 	ld.d        	$t1, $t1, 0
   120001b60:	29c0018d 	st.d        	$t1, $t0, 0
/home/airxs/user/os/testsuites/testsuits-for-oskernel/libc-test/src/common/rand.c:71
   120001b64:	28ffa2cc 	ld.d        	$t0, $fp, -24(0xfe8)
   120001b68:	00410d8c 	slli.d      	$t0, $t0, 0x3
   120001b6c:	28ff42cd 	ld.d        	$t1, $fp, -48(0xfd0)
   120001b70:	0010b1ac 	add.d       	$t0, $t1, $t0
   120001b74:	28ff82cd 	ld.d        	$t1, $fp, -32(0xfe0)
   120001b78:	29c0018d 	st.d        	$t1, $t0, 0
   120001b7c:	50005400 	b           	84(0x54)	# 120001bd0 <shuffle2+0xfc>
/home/airxs/user/os/testsuites/testsuits-for-oskernel/libc-test/src/common/rand.c:73
   120001b80:	28ffa2cd 	ld.d        	$t1, $fp, -24(0xfe8)
   120001b84:	28ff02cc 	ld.d        	$t0, $fp, -64(0xfc0)
   120001b88:	0011b1ac 	sub.d       	$t0, $t1, $t0
   120001b8c:	00410d8c 	slli.d      	$t0, $t0, 0x3
   120001b90:	28ff62cd 	ld.d        	$t1, $fp, -40(0xfd8)
   120001b94:	0010b1ad 	add.d       	$t1, $t1, $t0
   120001b98:	28ff22cc 	ld.d        	$t0, $fp, -56(0xfc8)
   120001b9c:	00410d8c 	slli.d      	$t0, $t0, 0x3
   120001ba0:	28ff62ce 	ld.d        	$t2, $fp, -40(0xfd8)
   120001ba4:	0010b1cc 	add.d       	$t0, $t2, $t0
   120001ba8:	28c001ad 	ld.d        	$t1, $t1, 0
   120001bac:	29c0018d 	st.d        	$t1, $t0, 0
/home/airxs/user/os/testsuites/testsuits-for-oskernel/libc-test/src/common/rand.c:74
   120001bb0:	28ffa2cd 	ld.d        	$t1, $fp, -24(0xfe8)
   120001bb4:	28ff02cc 	ld.d        	$t0, $fp, -64(0xfc0)
   120001bb8:	0011b1ac 	sub.d       	$t0, $t1, $t0
   120001bbc:	00410d8c 	slli.d      	$t0, $t0, 0x3
   120001bc0:	28ff62cd 	ld.d        	$t1, $fp, -40(0xfd8)
   120001bc4:	0010b1ac 	add.d       	$t0, $t1, $t0
   120001bc8:	28ff82cd 	ld.d        	$t1, $fp, -32(0xfe0)
   120001bcc:	29c0018d 	st.d        	$t1, $t0, 0
/home/airxs/user/os/testsuites/testsuits-for-oskernel/libc-test/src/common/rand.c:66
   120001bd0:	28ff22cc 	ld.d        	$t0, $fp, -56(0xfc8)
   120001bd4:	47ff259f 	bnez        	$t0, -220(0x7fff24)	# 120001af8 <shuffle2+0x24>
/home/airxs/user/os/testsuites/testsuits-for-oskernel/libc-test/src/common/rand.c:77
   120001bd8:	03400000 	andi        	$zero, $zero, 0x0
   120001bdc:	28c0e061 	ld.d        	$ra, $sp, 56(0x38)
   120001be0:	28c0c076 	ld.d        	$fp, $sp, 48(0x30)
   120001be4:	02c10063 	addi.d      	$sp, $sp, 64(0x40)
   120001be8:	4c000020 	jirl        	$zero, $ra, 0

0000000120001bec <t_shuffle>:
t_shuffle():
/home/airxs/user/os/testsuites/testsuits-for-oskernel/libc-test/src/common/rand.c:81
   120001bec:	02ff8063 	addi.d      	$sp, $sp, -32(0xfe0)
   120001bf0:	29c06061 	st.d        	$ra, $sp, 24(0x18)
   120001bf4:	29c04076 	st.d        	$fp, $sp, 16(0x10)
   120001bf8:	02c08076 	addi.d      	$fp, $sp, 32(0x20)
   120001bfc:	29ffa2c4 	st.d        	$a0, $fp, -24(0xfe8)
   120001c00:	29ff82c5 	st.d        	$a1, $fp, -32(0xfe0)
/home/airxs/user/os/testsuites/testsuits-for-oskernel/libc-test/src/common/rand.c:82
   120001c04:	00150007 	move        	$a3, $zero
   120001c08:	28ff82c6 	ld.d        	$a2, $fp, -32(0xfe0)
   120001c0c:	00150005 	move        	$a1, $zero
   120001c10:	28ffa2c4 	ld.d        	$a0, $fp, -24(0xfe8)
   120001c14:	57fec3ff 	bl          	-320(0xffffec0)	# 120001ad4 <shuffle2>
/home/airxs/user/os/testsuites/testsuits-for-oskernel/libc-test/src/common/rand.c:83
   120001c18:	03400000 	andi        	$zero, $zero, 0x0
   120001c1c:	28c06061 	ld.d        	$ra, $sp, 24(0x18)
   120001c20:	28c04076 	ld.d        	$fp, $sp, 16(0x10)
   120001c24:	02c08063 	addi.d      	$sp, $sp, 32(0x20)
   120001c28:	4c000020 	jirl        	$zero, $ra, 0

0000000120001c2c <t_randrange>:
t_randrange():
/home/airxs/user/os/testsuites/testsuits-for-oskernel/libc-test/src/common/rand.c:86
   120001c2c:	02ff4063 	addi.d      	$sp, $sp, -48(0xfd0)
   120001c30:	29c0a061 	st.d        	$ra, $sp, 40(0x28)
   120001c34:	29c08076 	st.d        	$fp, $sp, 32(0x20)
   120001c38:	02c0c076 	addi.d      	$fp, $sp, 48(0x30)
   120001c3c:	29ff62c4 	st.d        	$a0, $fp, -40(0xfd8)
   120001c40:	29ff42c5 	st.d        	$a1, $fp, -48(0xfd0)
/home/airxs/user/os/testsuites/testsuits-for-oskernel/libc-test/src/common/rand.c:88
   120001c44:	29ffa2c0 	st.d        	$zero, $fp, -24(0xfe8)
   120001c48:	50002800 	b           	40(0x28)	# 120001c70 <t_randrange+0x44>
/home/airxs/user/os/testsuites/testsuits-for-oskernel/libc-test/src/common/rand.c:89 (discriminator 3)
   120001c4c:	28ffa2cc 	ld.d        	$t0, $fp, -24(0xfe8)
   120001c50:	00410d8c 	slli.d      	$t0, $t0, 0x3
   120001c54:	28ff62cd 	ld.d        	$t1, $fp, -40(0xfd8)
   120001c58:	0010b1ac 	add.d       	$t0, $t1, $t0
   120001c5c:	28ffa2cd 	ld.d        	$t1, $fp, -24(0xfe8)
   120001c60:	29c0018d 	st.d        	$t1, $t0, 0
/home/airxs/user/os/testsuites/testsuits-for-oskernel/libc-test/src/common/rand.c:88 (discriminator 3)
   120001c64:	28ffa2cc 	ld.d        	$t0, $fp, -24(0xfe8)
   120001c68:	02c0058c 	addi.d      	$t0, $t0, 1(0x1)
   120001c6c:	29ffa2cc 	st.d        	$t0, $fp, -24(0xfe8)
/home/airxs/user/os/testsuites/testsuits-for-oskernel/libc-test/src/common/rand.c:88 (discriminator 1)
   120001c70:	28ffa2cd 	ld.d        	$t1, $fp, -24(0xfe8)
   120001c74:	28ff42cc 	ld.d        	$t0, $fp, -48(0xfd0)
   120001c78:	6bffd5ac 	bltu        	$t1, $t0, -44(0x3ffd4)	# 120001c4c <t_randrange+0x20>
/home/airxs/user/os/testsuites/testsuits-for-oskernel/libc-test/src/common/rand.c:90
   120001c7c:	28ff42c5 	ld.d        	$a1, $fp, -48(0xfd0)
   120001c80:	28ff62c4 	ld.d        	$a0, $fp, -40(0xfd8)
   120001c84:	57ff6bff 	bl          	-152(0xfffff68)	# 120001bec <t_shuffle>
/home/airxs/user/os/testsuites/testsuits-for-oskernel/libc-test/src/common/rand.c:91
   120001c88:	03400000 	andi        	$zero, $zero, 0x0
   120001c8c:	28c0a061 	ld.d        	$ra, $sp, 40(0x28)
   120001c90:	28c08076 	ld.d        	$fp, $sp, 32(0x20)
   120001c94:	02c0c063 	addi.d      	$sp, $sp, 48(0x30)
   120001c98:	4c000020 	jirl        	$zero, $ra, 0

0000000120001c9c <insert>:
insert():
/home/airxs/user/os/testsuites/testsuits-for-oskernel/libc-test/src/common/rand.c:95
   120001c9c:	02ff0063 	addi.d      	$sp, $sp, -64(0xfc0)
   120001ca0:	29c0e076 	st.d        	$fp, $sp, 56(0x38)
   120001ca4:	02c10076 	addi.d      	$fp, $sp, 64(0x40)
   120001ca8:	29ff62c4 	st.d        	$a0, $fp, -40(0xfd8)
   120001cac:	29ff42c5 	st.d        	$a1, $fp, -48(0xfd0)
   120001cb0:	29ff22c6 	st.d        	$a2, $fp, -56(0xfc8)
/home/airxs/user/os/testsuites/testsuits-for-oskernel/libc-test/src/common/rand.c:96
   120001cb4:	28ff42cc 	ld.d        	$t0, $fp, -48(0xfd0)
   120001cb8:	02fffd8c 	addi.d      	$t0, $t0, -1(0xfff)
   120001cbc:	28ff22cd 	ld.d        	$t1, $fp, -56(0xfc8)
   120001cc0:	0014b1ac 	and         	$t0, $t1, $t0
   120001cc4:	29ffa2cc 	st.d        	$t0, $fp, -24(0xfe8)
/home/airxs/user/os/testsuites/testsuits-for-oskernel/libc-test/src/common/rand.c:97
   120001cc8:	0280040c 	addi.w      	$t0, $zero, 1(0x1)
   120001ccc:	29ff82cc 	st.d        	$t0, $fp, -32(0xfe0)
/home/airxs/user/os/testsuites/testsuits-for-oskernel/libc-test/src/common/rand.c:99
   120001cd0:	50005400 	b           	84(0x54)	# 120001d24 <insert+0x88>
/home/airxs/user/os/testsuites/testsuits-for-oskernel/libc-test/src/common/rand.c:100
   120001cd4:	28ffa2cc 	ld.d        	$t0, $fp, -24(0xfe8)
   120001cd8:	00410d8c 	slli.d      	$t0, $t0, 0x3
   120001cdc:	28ff62cd 	ld.d        	$t1, $fp, -40(0xfd8)
   120001ce0:	0010b1ac 	add.d       	$t0, $t1, $t0
   120001ce4:	28c0018c 	ld.d        	$t0, $t0, 0
   120001ce8:	28ff22cd 	ld.d        	$t1, $fp, -56(0xfc8)
   120001cec:	5c000dac 	bne         	$t1, $t0, 12(0xc)	# 120001cf8 <insert+0x5c>
/home/airxs/user/os/testsuites/testsuits-for-oskernel/libc-test/src/common/rand.c:101
   120001cf0:	02bffc0c 	addi.w      	$t0, $zero, -1(0xfff)
   120001cf4:	50006400 	b           	100(0x64)	# 120001d58 <insert+0xbc>
/home/airxs/user/os/testsuites/testsuits-for-oskernel/libc-test/src/common/rand.c:102
   120001cf8:	28ff82cc 	ld.d        	$t0, $fp, -32(0xfe0)
   120001cfc:	02c0058d 	addi.d      	$t1, $t0, 1(0x1)
   120001d00:	29ff82cd 	st.d        	$t1, $fp, -32(0xfe0)
   120001d04:	28ffa2cd 	ld.d        	$t1, $fp, -24(0xfe8)
   120001d08:	0010b1ac 	add.d       	$t0, $t1, $t0
   120001d0c:	29ffa2cc 	st.d        	$t0, $fp, -24(0xfe8)
/home/airxs/user/os/testsuites/testsuits-for-oskernel/libc-test/src/common/rand.c:103
   120001d10:	28ff42cc 	ld.d        	$t0, $fp, -48(0xfd0)
   120001d14:	02fffd8c 	addi.d      	$t0, $t0, -1(0xfff)
   120001d18:	28ffa2cd 	ld.d        	$t1, $fp, -24(0xfe8)
   120001d1c:	0014b1ac 	and         	$t0, $t1, $t0
   120001d20:	29ffa2cc 	st.d        	$t0, $fp, -24(0xfe8)
/home/airxs/user/os/testsuites/testsuits-for-oskernel/libc-test/src/common/rand.c:99
   120001d24:	28ffa2cc 	ld.d        	$t0, $fp, -24(0xfe8)
   120001d28:	00410d8c 	slli.d      	$t0, $t0, 0x3
   120001d2c:	28ff62cd 	ld.d        	$t1, $fp, -40(0xfd8)
   120001d30:	0010b1ac 	add.d       	$t0, $t1, $t0
   120001d34:	28c0018c 	ld.d        	$t0, $t0, 0
   120001d38:	47ff9d9f 	bnez        	$t0, -100(0x7fff9c)	# 120001cd4 <insert+0x38>
/home/airxs/user/os/testsuites/testsuits-for-oskernel/libc-test/src/common/rand.c:105
   120001d3c:	28ffa2cc 	ld.d        	$t0, $fp, -24(0xfe8)
   120001d40:	00410d8c 	slli.d      	$t0, $t0, 0x3
   120001d44:	28ff62cd 	ld.d        	$t1, $fp, -40(0xfd8)
   120001d48:	0010b1ac 	add.d       	$t0, $t1, $t0
   120001d4c:	28ff22cd 	ld.d        	$t1, $fp, -56(0xfc8)
   120001d50:	29c0018d 	st.d        	$t1, $t0, 0
/home/airxs/user/os/testsuites/testsuits-for-oskernel/libc-test/src/common/rand.c:106
   120001d54:	0015000c 	move        	$t0, $zero
/home/airxs/user/os/testsuites/testsuits-for-oskernel/libc-test/src/common/rand.c:107
   120001d58:	00150184 	move        	$a0, $t0
   120001d5c:	28c0e076 	ld.d        	$fp, $sp, 56(0x38)
   120001d60:	02c10063 	addi.d      	$sp, $sp, 64(0x40)
   120001d64:	4c000020 	jirl        	$zero, $ra, 0

0000000120001d68 <t_choose>:
t_choose():
/home/airxs/user/os/testsuites/testsuits-for-oskernel/libc-test/src/common/rand.c:111
   120001d68:	02fe8063 	addi.d      	$sp, $sp, -96(0xfa0)
   120001d6c:	29c16061 	st.d        	$ra, $sp, 88(0x58)
   120001d70:	29c14076 	st.d        	$fp, $sp, 80(0x50)
   120001d74:	29c12077 	st.d        	$s0, $sp, 72(0x48)
   120001d78:	02c18076 	addi.d      	$fp, $sp, 96(0x60)
   120001d7c:	29fee2c4 	st.d        	$a0, $fp, -72(0xfb8)
   120001d80:	29fec2c5 	st.d        	$a1, $fp, -80(0xfb0)
   120001d84:	29fea2c6 	st.d        	$a2, $fp, -88(0xfa8)
/home/airxs/user/os/testsuites/testsuits-for-oskernel/libc-test/src/common/rand.c:115
   120001d88:	28fee2cd 	ld.d        	$t1, $fp, -72(0xfb8)
   120001d8c:	28fec2cc 	ld.d        	$t0, $fp, -80(0xfb0)
   120001d90:	6c000dac 	bgeu        	$t1, $t0, 12(0xc)	# 120001d9c <t_choose+0x34>
/home/airxs/user/os/testsuites/testsuits-for-oskernel/libc-test/src/common/rand.c:116
   120001d94:	02bffc0c 	addi.w      	$t0, $zero, -1(0xfff)
   120001d98:	50033c00 	b           	828(0x33c)	# 1200020d4 <t_choose+0x36c>
/home/airxs/user/os/testsuites/testsuits-for-oskernel/libc-test/src/common/rand.c:118
   120001d9c:	28fee2cd 	ld.d        	$t1, $fp, -72(0xfb8)
   120001da0:	02803c0c 	addi.w      	$t0, $zero, 15(0xf)
   120001da4:	68005d8d 	bltu        	$t0, $t1, 92(0x5c)	# 120001e00 <t_choose+0x98>
/home/airxs/user/os/testsuites/testsuits-for-oskernel/libc-test/src/common/rand.c:120
   120001da8:	50004800 	b           	72(0x48)	# 120001df0 <t_choose+0x88>
/home/airxs/user/os/testsuites/testsuits-for-oskernel/libc-test/src/common/rand.c:121
   120001dac:	28fee2cc 	ld.d        	$t0, $fp, -72(0xfb8)
   120001db0:	02fffd8d 	addi.d      	$t1, $t0, -1(0xfff)
   120001db4:	29fee2cd 	st.d        	$t1, $fp, -72(0xfb8)
   120001db8:	00150184 	move        	$a0, $t0
   120001dbc:	57fc33ff 	bl          	-976(0xffffc30)	# 1200019ec <t_randn>
   120001dc0:	0015008d 	move        	$t1, $a0
   120001dc4:	28fec2cc 	ld.d        	$t0, $fp, -80(0xfb0)
   120001dc8:	6c0029ac 	bgeu        	$t1, $t0, 40(0x28)	# 120001df0 <t_choose+0x88>
/home/airxs/user/os/testsuites/testsuits-for-oskernel/libc-test/src/common/rand.c:122
   120001dcc:	28fec2cc 	ld.d        	$t0, $fp, -80(0xfb0)
   120001dd0:	02fffd8c 	addi.d      	$t0, $t0, -1(0xfff)
   120001dd4:	29fec2cc 	st.d        	$t0, $fp, -80(0xfb0)
   120001dd8:	28fec2cc 	ld.d        	$t0, $fp, -80(0xfb0)
   120001ddc:	00410d8c 	slli.d      	$t0, $t0, 0x3
   120001de0:	28fea2cd 	ld.d        	$t1, $fp, -88(0xfa8)
   120001de4:	0010b1ac 	add.d       	$t0, $t1, $t0
   120001de8:	28fee2cd 	ld.d        	$t1, $fp, -72(0xfb8)
   120001dec:	29c0018d 	st.d        	$t1, $t0, 0
/home/airxs/user/os/testsuites/testsuits-for-oskernel/libc-test/src/common/rand.c:120
   120001df0:	28fec2cc 	ld.d        	$t0, $fp, -80(0xfb0)
   120001df4:	47ffb99f 	bnez        	$t0, -72(0x7fffb8)	# 120001dac <t_choose+0x44>
/home/airxs/user/os/testsuites/testsuits-for-oskernel/libc-test/src/common/rand.c:123
   120001df8:	0015000c 	move        	$t0, $zero
   120001dfc:	5002d800 	b           	728(0x2d8)	# 1200020d4 <t_choose+0x36c>
/home/airxs/user/os/testsuites/testsuits-for-oskernel/libc-test/src/common/rand.c:126
   120001e00:	28fec2cd 	ld.d        	$t1, $fp, -80(0xfb0)
   120001e04:	02801c0c 	addi.w      	$t0, $zero, 7(0x7)
   120001e08:	6800998d 	bltu        	$t0, $t1, 152(0x98)	# 120001ea0 <t_choose+0x138>
/home/airxs/user/os/testsuites/testsuits-for-oskernel/libc-test/src/common/rand.c:128
   120001e0c:	29ff62c0 	st.d        	$zero, $fp, -40(0xfd8)
   120001e10:	50007c00 	b           	124(0x7c)	# 120001e8c <t_choose+0x124>
/home/airxs/user/os/testsuites/testsuits-for-oskernel/libc-test/src/common/rand.c:129
   120001e14:	28ff62cc 	ld.d        	$t0, $fp, -40(0xfd8)
   120001e18:	00410d8c 	slli.d      	$t0, $t0, 0x3
   120001e1c:	28fea2cd 	ld.d        	$t1, $fp, -88(0xfa8)
   120001e20:	0010b1b7 	add.d       	$s0, $t1, $t0
   120001e24:	28fee2c4 	ld.d        	$a0, $fp, -72(0xfb8)
   120001e28:	57fbc7ff 	bl          	-1084(0xffffbc4)	# 1200019ec <t_randn>
   120001e2c:	0015008c 	move        	$t0, $a0
   120001e30:	29c002ec 	st.d        	$t0, $s0, 0
/home/airxs/user/os/testsuites/testsuits-for-oskernel/libc-test/src/common/rand.c:130
   120001e34:	29ff42c0 	st.d        	$zero, $fp, -48(0xfd0)
   120001e38:	50001000 	b           	16(0x10)	# 120001e48 <t_choose+0xe0>
/home/airxs/user/os/testsuites/testsuits-for-oskernel/libc-test/src/common/rand.c:130 (discriminator 3)
   120001e3c:	28ff42cc 	ld.d        	$t0, $fp, -48(0xfd0)
   120001e40:	02c0058c 	addi.d      	$t0, $t0, 1(0x1)
   120001e44:	29ff42cc 	st.d        	$t0, $fp, -48(0xfd0)
/home/airxs/user/os/testsuites/testsuits-for-oskernel/libc-test/src/common/rand.c:130 (discriminator 1)
   120001e48:	28ff42cc 	ld.d        	$t0, $fp, -48(0xfd0)
   120001e4c:	00410d8c 	slli.d      	$t0, $t0, 0x3
   120001e50:	28fea2cd 	ld.d        	$t1, $fp, -88(0xfa8)
   120001e54:	0010b1ac 	add.d       	$t0, $t1, $t0
   120001e58:	28c0018d 	ld.d        	$t1, $t0, 0
   120001e5c:	28ff62cc 	ld.d        	$t0, $fp, -40(0xfd8)
   120001e60:	00410d8c 	slli.d      	$t0, $t0, 0x3
   120001e64:	28fea2ce 	ld.d        	$t2, $fp, -88(0xfa8)
   120001e68:	0010b1cc 	add.d       	$t0, $t2, $t0
   120001e6c:	28c0018c 	ld.d        	$t0, $t0, 0
   120001e70:	5fffcdac 	bne         	$t1, $t0, -52(0x3ffcc)	# 120001e3c <t_choose+0xd4>
/home/airxs/user/os/testsuites/testsuits-for-oskernel/libc-test/src/common/rand.c:131
   120001e74:	28ff42cd 	ld.d        	$t1, $fp, -48(0xfd0)
   120001e78:	28ff62cc 	ld.d        	$t0, $fp, -40(0xfd8)
   120001e7c:	5c0011ac 	bne         	$t1, $t0, 16(0x10)	# 120001e8c <t_choose+0x124>
/home/airxs/user/os/testsuites/testsuits-for-oskernel/libc-test/src/common/rand.c:132
   120001e80:	28ff62cc 	ld.d        	$t0, $fp, -40(0xfd8)
   120001e84:	02c0058c 	addi.d      	$t0, $t0, 1(0x1)
   120001e88:	29ff62cc 	st.d        	$t0, $fp, -40(0xfd8)
/home/airxs/user/os/testsuites/testsuits-for-oskernel/libc-test/src/common/rand.c:128 (discriminator 1)
   120001e8c:	28ff62cd 	ld.d        	$t1, $fp, -40(0xfd8)
   120001e90:	28fec2cc 	ld.d        	$t0, $fp, -80(0xfb0)
   120001e94:	6bff81ac 	bltu        	$t1, $t0, -128(0x3ff80)	# 120001e14 <t_choose+0xac>
/home/airxs/user/os/testsuites/testsuits-for-oskernel/libc-test/src/common/rand.c:134
   120001e98:	0015000c 	move        	$t0, $zero
   120001e9c:	50023800 	b           	568(0x238)	# 1200020d4 <t_choose+0x36c>
/home/airxs/user/os/testsuites/testsuits-for-oskernel/libc-test/src/common/rand.c:139
   120001ea0:	28fec2cd 	ld.d        	$t1, $fp, -80(0xfb0)
   120001ea4:	0280140c 	addi.w      	$t0, $zero, 5(0x5)
   120001ea8:	001db1ac 	mul.d       	$t0, $t1, $t0
   120001eac:	28fee2cd 	ld.d        	$t1, $fp, -72(0xfb8)
   120001eb0:	6c0125ac 	bgeu        	$t1, $t0, 292(0x124)	# 120001fd4 <t_choose+0x26c>
/home/airxs/user/os/testsuites/testsuits-for-oskernel/libc-test/src/common/rand.c:139 (discriminator 1)
   120001eb4:	28fee2cd 	ld.d        	$t1, $fp, -72(0xfb8)
   120001eb8:	28fec2cc 	ld.d        	$t0, $fp, -80(0xfb0)
   120001ebc:	0011b1ac 	sub.d       	$t0, $t1, $t0
   120001ec0:	00410d8d 	slli.d      	$t1, $t0, 0x3
   120001ec4:	02bffc0c 	addi.w      	$t0, $zero, -1(0xfff)
   120001ec8:	58010dac 	beq         	$t1, $t0, 268(0x10c)	# 120001fd4 <t_choose+0x26c>
/home/airxs/user/os/testsuites/testsuits-for-oskernel/libc-test/src/common/rand.c:141
   120001ecc:	28fee2cd 	ld.d        	$t1, $fp, -72(0xfb8)
   120001ed0:	28fec2cc 	ld.d        	$t0, $fp, -80(0xfb0)
   120001ed4:	0011b1ac 	sub.d       	$t0, $t1, $t0
   120001ed8:	00410d8c 	slli.d      	$t0, $t0, 0x3
   120001edc:	00150184 	move        	$a0, $t0
   120001ee0:	54364000 	bl          	13888(0x3640)	# 120005520 <malloc>
   120001ee4:	29ff02c4 	st.d        	$a0, $fp, -64(0xfc0)
/home/airxs/user/os/testsuites/testsuits-for-oskernel/libc-test/src/common/rand.c:142
   120001ee8:	28ff02cc 	ld.d        	$t0, $fp, -64(0xfc0)
   120001eec:	44000d80 	bnez        	$t0, 12(0xc)	# 120001ef8 <t_choose+0x190>
/home/airxs/user/os/testsuites/testsuits-for-oskernel/libc-test/src/common/rand.c:143
   120001ef0:	02bffc0c 	addi.w      	$t0, $zero, -1(0xfff)
   120001ef4:	5001e000 	b           	480(0x1e0)	# 1200020d4 <t_choose+0x36c>
/home/airxs/user/os/testsuites/testsuits-for-oskernel/libc-test/src/common/rand.c:144
   120001ef8:	29ff62c0 	st.d        	$zero, $fp, -40(0xfd8)
   120001efc:	50002800 	b           	40(0x28)	# 120001f24 <t_choose+0x1bc>
/home/airxs/user/os/testsuites/testsuits-for-oskernel/libc-test/src/common/rand.c:145 (discriminator 3)
   120001f00:	28ff62cc 	ld.d        	$t0, $fp, -40(0xfd8)
   120001f04:	00410d8c 	slli.d      	$t0, $t0, 0x3
   120001f08:	28fea2cd 	ld.d        	$t1, $fp, -88(0xfa8)
   120001f0c:	0010b1ac 	add.d       	$t0, $t1, $t0
   120001f10:	28ff62cd 	ld.d        	$t1, $fp, -40(0xfd8)
   120001f14:	29c0018d 	st.d        	$t1, $t0, 0
/home/airxs/user/os/testsuites/testsuits-for-oskernel/libc-test/src/common/rand.c:144 (discriminator 3)
   120001f18:	28ff62cc 	ld.d        	$t0, $fp, -40(0xfd8)
   120001f1c:	02c0058c 	addi.d      	$t0, $t0, 1(0x1)
   120001f20:	29ff62cc 	st.d        	$t0, $fp, -40(0xfd8)
/home/airxs/user/os/testsuites/testsuits-for-oskernel/libc-test/src/common/rand.c:144 (discriminator 1)
   120001f24:	28ff62cd 	ld.d        	$t1, $fp, -40(0xfd8)
   120001f28:	28fec2cc 	ld.d        	$t0, $fp, -80(0xfb0)
   120001f2c:	6bffd5ac 	bltu        	$t1, $t0, -44(0x3ffd4)	# 120001f00 <t_choose+0x198>
/home/airxs/user/os/testsuites/testsuits-for-oskernel/libc-test/src/common/rand.c:146
   120001f30:	50003000 	b           	48(0x30)	# 120001f60 <t_choose+0x1f8>
/home/airxs/user/os/testsuites/testsuits-for-oskernel/libc-test/src/common/rand.c:147 (discriminator 2)
   120001f34:	28ff62cd 	ld.d        	$t1, $fp, -40(0xfd8)
   120001f38:	28fec2cc 	ld.d        	$t0, $fp, -80(0xfb0)
   120001f3c:	0011b1ac 	sub.d       	$t0, $t1, $t0
   120001f40:	00410d8c 	slli.d      	$t0, $t0, 0x3
   120001f44:	28ff02cd 	ld.d        	$t1, $fp, -64(0xfc0)
   120001f48:	0010b1ac 	add.d       	$t0, $t1, $t0
   120001f4c:	28ff62cd 	ld.d        	$t1, $fp, -40(0xfd8)
   120001f50:	29c0018d 	st.d        	$t1, $t0, 0
/home/airxs/user/os/testsuites/testsuits-for-oskernel/libc-test/src/common/rand.c:146 (discriminator 2)
   120001f54:	28ff62cc 	ld.d        	$t0, $fp, -40(0xfd8)
   120001f58:	02c0058c 	addi.d      	$t0, $t0, 1(0x1)
   120001f5c:	29ff62cc 	st.d        	$t0, $fp, -40(0xfd8)
/home/airxs/user/os/testsuites/testsuits-for-oskernel/libc-test/src/common/rand.c:146 (discriminator 1)
   120001f60:	28ff62cd 	ld.d        	$t1, $fp, -40(0xfd8)
   120001f64:	28fee2cc 	ld.d        	$t0, $fp, -72(0xfb8)
   120001f68:	6bffcdac 	bltu        	$t1, $t0, -52(0x3ffcc)	# 120001f34 <t_choose+0x1cc>
/home/airxs/user/os/testsuites/testsuits-for-oskernel/libc-test/src/common/rand.c:148
   120001f6c:	28fee2cd 	ld.d        	$t1, $fp, -72(0xfb8)
   120001f70:	28fec2cc 	ld.d        	$t0, $fp, -80(0xfb0)
   120001f74:	0011b1ac 	sub.d       	$t0, $t1, $t0
   120001f78:	28fec2cd 	ld.d        	$t1, $fp, -80(0xfb0)
   120001f7c:	6c0029ac 	bgeu        	$t1, $t0, 40(0x28)	# 120001fa4 <t_choose+0x23c>
/home/airxs/user/os/testsuites/testsuits-for-oskernel/libc-test/src/common/rand.c:149
   120001f80:	28fee2cd 	ld.d        	$t1, $fp, -72(0xfb8)
   120001f84:	28fec2cc 	ld.d        	$t0, $fp, -80(0xfb0)
   120001f88:	0011b1ac 	sub.d       	$t0, $t1, $t0
   120001f8c:	00150187 	move        	$a3, $t0
   120001f90:	28fec2c6 	ld.d        	$a2, $fp, -80(0xfb0)
   120001f94:	28ff02c5 	ld.d        	$a1, $fp, -64(0xfc0)
   120001f98:	28fea2c4 	ld.d        	$a0, $fp, -88(0xfa8)
   120001f9c:	57fb3bff 	bl          	-1224(0xffffb38)	# 120001ad4 <shuffle2>
   120001fa0:	50002400 	b           	36(0x24)	# 120001fc4 <t_choose+0x25c>
/home/airxs/user/os/testsuites/testsuits-for-oskernel/libc-test/src/common/rand.c:151
   120001fa4:	28fee2cd 	ld.d        	$t1, $fp, -72(0xfb8)
   120001fa8:	28fec2cc 	ld.d        	$t0, $fp, -80(0xfb0)
   120001fac:	0011b1ac 	sub.d       	$t0, $t1, $t0
   120001fb0:	28fec2c7 	ld.d        	$a3, $fp, -80(0xfb0)
   120001fb4:	00150186 	move        	$a2, $t0
   120001fb8:	28fea2c5 	ld.d        	$a1, $fp, -88(0xfa8)
   120001fbc:	28ff02c4 	ld.d        	$a0, $fp, -64(0xfc0)
   120001fc0:	57fb17ff 	bl          	-1260(0xffffb14)	# 120001ad4 <shuffle2>
/home/airxs/user/os/testsuites/testsuits-for-oskernel/libc-test/src/common/rand.c:152
   120001fc4:	28ff02c4 	ld.d        	$a0, $fp, -64(0xfc0)
   120001fc8:	5431d800 	bl          	12760(0x31d8)	# 1200051a0 <free>
/home/airxs/user/os/testsuites/testsuits-for-oskernel/libc-test/src/common/rand.c:153
   120001fcc:	0015000c 	move        	$t0, $zero
   120001fd0:	50010400 	b           	260(0x104)	# 1200020d4 <t_choose+0x36c>
/home/airxs/user/os/testsuites/testsuits-for-oskernel/libc-test/src/common/rand.c:157
   120001fd4:	0280400c 	addi.w      	$t0, $zero, 16(0x10)
   120001fd8:	29ff22cc 	st.d        	$t0, $fp, -56(0xfc8)
   120001fdc:	50001000 	b           	16(0x10)	# 120001fec <t_choose+0x284>
/home/airxs/user/os/testsuites/testsuits-for-oskernel/libc-test/src/common/rand.c:157 (discriminator 3)
   120001fe0:	28ff22cc 	ld.d        	$t0, $fp, -56(0xfc8)
   120001fe4:	0041058c 	slli.d      	$t0, $t0, 0x1
   120001fe8:	29ff22cc 	st.d        	$t0, $fp, -56(0xfc8)
/home/airxs/user/os/testsuites/testsuits-for-oskernel/libc-test/src/common/rand.c:157 (discriminator 1)
   120001fec:	28fec2cc 	ld.d        	$t0, $fp, -80(0xfb0)
   120001ff0:	0041058c 	slli.d      	$t0, $t0, 0x1
   120001ff4:	28ff22cd 	ld.d        	$t1, $fp, -56(0xfc8)
   120001ff8:	6bffe9ac 	bltu        	$t1, $t0, -24(0x3ffe8)	# 120001fe0 <t_choose+0x278>
/home/airxs/user/os/testsuites/testsuits-for-oskernel/libc-test/src/common/rand.c:158
   120001ffc:	02802005 	addi.w      	$a1, $zero, 8(0x8)
   120002000:	28ff22c4 	ld.d        	$a0, $fp, -56(0xfc8)
   120002004:	54306c00 	bl          	12396(0x306c)	# 120005070 <calloc>
   120002008:	29ff02c4 	st.d        	$a0, $fp, -64(0xfc0)
/home/airxs/user/os/testsuites/testsuits-for-oskernel/libc-test/src/common/rand.c:159
   12000200c:	28ff02cc 	ld.d        	$t0, $fp, -64(0xfc0)
   120002010:	44000d80 	bnez        	$t0, 12(0xc)	# 12000201c <t_choose+0x2b4>
/home/airxs/user/os/testsuites/testsuits-for-oskernel/libc-test/src/common/rand.c:160
   120002014:	02bffc0c 	addi.w      	$t0, $zero, -1(0xfff)
   120002018:	5000bc00 	b           	188(0xbc)	# 1200020d4 <t_choose+0x36c>
/home/airxs/user/os/testsuites/testsuits-for-oskernel/libc-test/src/common/rand.c:161
   12000201c:	29ff62c0 	st.d        	$zero, $fp, -40(0xfd8)
   120002020:	50003c00 	b           	60(0x3c)	# 12000205c <t_choose+0x2f4>
/home/airxs/user/os/testsuites/testsuits-for-oskernel/libc-test/src/common/rand.c:162
   120002024:	03400000 	andi        	$zero, $zero, 0x0
/home/airxs/user/os/testsuites/testsuits-for-oskernel/libc-test/src/common/rand.c:162 (discriminator 1)
   120002028:	28fee2c4 	ld.d        	$a0, $fp, -72(0xfb8)
   12000202c:	57f9c3ff 	bl          	-1600(0xffff9c0)	# 1200019ec <t_randn>
   120002030:	0015008c 	move        	$t0, $a0
   120002034:	02c0058c 	addi.d      	$t0, $t0, 1(0x1)
   120002038:	00150186 	move        	$a2, $t0
   12000203c:	28ff22c5 	ld.d        	$a1, $fp, -56(0xfc8)
   120002040:	28ff02c4 	ld.d        	$a0, $fp, -64(0xfc0)
   120002044:	57fc5bff 	bl          	-936(0xffffc58)	# 120001c9c <insert>
   120002048:	0015008c 	move        	$t0, $a0
   12000204c:	47ffdd9f 	bnez        	$t0, -36(0x7fffdc)	# 120002028 <t_choose+0x2c0>
/home/airxs/user/os/testsuites/testsuits-for-oskernel/libc-test/src/common/rand.c:161 (discriminator 2)
   120002050:	28ff62cc 	ld.d        	$t0, $fp, -40(0xfd8)
   120002054:	02c0058c 	addi.d      	$t0, $t0, 1(0x1)
   120002058:	29ff62cc 	st.d        	$t0, $fp, -40(0xfd8)
/home/airxs/user/os/testsuites/testsuits-for-oskernel/libc-test/src/common/rand.c:161 (discriminator 1)
   12000205c:	28ff62cd 	ld.d        	$t1, $fp, -40(0xfd8)
   120002060:	28fec2cc 	ld.d        	$t0, $fp, -80(0xfb0)
   120002064:	6bffc1ac 	bltu        	$t1, $t0, -64(0x3ffc0)	# 120002024 <t_choose+0x2bc>
/home/airxs/user/os/testsuites/testsuits-for-oskernel/libc-test/src/common/rand.c:163
   120002068:	29ff62c0 	st.d        	$zero, $fp, -40(0xfd8)
   12000206c:	50005000 	b           	80(0x50)	# 1200020bc <t_choose+0x354>
/home/airxs/user/os/testsuites/testsuits-for-oskernel/libc-test/src/common/rand.c:164
   120002070:	28ff62cc 	ld.d        	$t0, $fp, -40(0xfd8)
   120002074:	00410d8c 	slli.d      	$t0, $t0, 0x3
   120002078:	28ff02cd 	ld.d        	$t1, $fp, -64(0xfc0)
   12000207c:	0010b1ac 	add.d       	$t0, $t1, $t0
   120002080:	28c0018c 	ld.d        	$t0, $t0, 0
   120002084:	40002d80 	beqz        	$t0, 44(0x2c)	# 1200020b0 <t_choose+0x348>
/home/airxs/user/os/testsuites/testsuits-for-oskernel/libc-test/src/common/rand.c:165
   120002088:	28ff62cc 	ld.d        	$t0, $fp, -40(0xfd8)
   12000208c:	00410d8c 	slli.d      	$t0, $t0, 0x3
   120002090:	28ff02cd 	ld.d        	$t1, $fp, -64(0xfc0)
   120002094:	0010b1ac 	add.d       	$t0, $t1, $t0
   120002098:	28c0018d 	ld.d        	$t1, $t0, 0
   12000209c:	28fea2cc 	ld.d        	$t0, $fp, -88(0xfa8)
   1200020a0:	02c0218e 	addi.d      	$t2, $t0, 8(0x8)
   1200020a4:	29fea2ce 	st.d        	$t2, $fp, -88(0xfa8)
   1200020a8:	02fffdad 	addi.d      	$t1, $t1, -1(0xfff)
   1200020ac:	29c0018d 	st.d        	$t1, $t0, 0
/home/airxs/user/os/testsuites/testsuits-for-oskernel/libc-test/src/common/rand.c:163 (discriminator 2)
   1200020b0:	28ff62cc 	ld.d        	$t0, $fp, -40(0xfd8)
   1200020b4:	02c0058c 	addi.d      	$t0, $t0, 1(0x1)
   1200020b8:	29ff62cc 	st.d        	$t0, $fp, -40(0xfd8)
/home/airxs/user/os/testsuites/testsuits-for-oskernel/libc-test/src/common/rand.c:163 (discriminator 1)
   1200020bc:	28ff62cd 	ld.d        	$t1, $fp, -40(0xfd8)
   1200020c0:	28ff22cc 	ld.d        	$t0, $fp, -56(0xfc8)
   1200020c4:	6bffadac 	bltu        	$t1, $t0, -84(0x3ffac)	# 120002070 <t_choose+0x308>
/home/airxs/user/os/testsuites/testsuits-for-oskernel/libc-test/src/common/rand.c:166
   1200020c8:	28ff02c4 	ld.d        	$a0, $fp, -64(0xfc0)
   1200020cc:	5430d400 	bl          	12500(0x30d4)	# 1200051a0 <free>
/home/airxs/user/os/testsuites/testsuits-for-oskernel/libc-test/src/common/rand.c:167
   1200020d0:	0015000c 	move        	$t0, $zero
/home/airxs/user/os/testsuites/testsuits-for-oskernel/libc-test/src/common/rand.c:168
   1200020d4:	00150184 	move        	$a0, $t0
   1200020d8:	28c16061 	ld.d        	$ra, $sp, 88(0x58)
   1200020dc:	28c14076 	ld.d        	$fp, $sp, 80(0x50)
   1200020e0:	28c12077 	ld.d        	$s0, $sp, 72(0x48)
   1200020e4:	02c18063 	addi.d      	$sp, $sp, 96(0x60)
   1200020e8:	4c000020 	jirl        	$zero, $ra, 0

00000001200020ec <t_setrlim>:
t_setrlim():
/home/airxs/user/os/testsuites/testsuits-for-oskernel/libc-test/src/common/setrlim.c:7
   1200020ec:	02ff4063 	addi.d      	$sp, $sp, -48(0xfd0)
   1200020f0:	29c0a061 	st.d        	$ra, $sp, 40(0x28)
   1200020f4:	29c08076 	st.d        	$fp, $sp, 32(0x20)
   1200020f8:	02c0c076 	addi.d      	$fp, $sp, 48(0x30)
   1200020fc:	0015008c 	move        	$t0, $a0
   120002100:	29ff42c5 	st.d        	$a1, $fp, -48(0xfd0)
   120002104:	0040818c 	slli.w      	$t0, $t0, 0x0
   120002108:	29bf72cc 	st.w        	$t0, $fp, -36(0xfdc)
/home/airxs/user/os/testsuites/testsuits-for-oskernel/libc-test/src/common/setrlim.c:10
   12000210c:	02ff82cd 	addi.d      	$t1, $fp, -32(0xfe0)
   120002110:	28bf72cc 	ld.w        	$t0, $fp, -36(0xfdc)
   120002114:	001501a5 	move        	$a1, $t1
   120002118:	00150184 	move        	$a0, $t0
   12000211c:	545aec00 	bl          	23276(0x5aec)	# 120007c08 <getrlimit>
   120002120:	0015008c 	move        	$t0, $a0
   120002124:	40003d80 	beqz        	$t0, 60(0x3c)	# 120002160 <t_setrlim+0x74>
/home/airxs/user/os/testsuites/testsuits-for-oskernel/libc-test/src/common/setrlim.c:11
   120002128:	5428ac00 	bl          	10412(0x28ac)	# 1200049d4 <__errno_location>
   12000212c:	0015008c 	move        	$t0, $a0
   120002130:	2880018c 	ld.w        	$t0, $t0, 0
   120002134:	00150184 	move        	$a0, $t0
   120002138:	5428ec00 	bl          	10476(0x28ec)	# 120004a24 <strerror>
   12000213c:	0015008d 	move        	$t1, $a0
   120002140:	28bf72cc 	ld.w        	$t0, $fp, -36(0xfdc)
   120002144:	001501a6 	move        	$a2, $t1
   120002148:	00150185 	move        	$a1, $t0
   12000214c:	1c0001c4 	pcaddu12i   	$a0, 14(0xe)
   120002150:	02c91084 	addi.d      	$a0, $a0, 580(0x244)
   120002154:	57f513ff 	bl          	-2800(0xffff510)	# 120001664 <t_printf>
/home/airxs/user/os/testsuites/testsuits-for-oskernel/libc-test/src/common/setrlim.c:12
   120002158:	02bffc0c 	addi.w      	$t0, $zero, -1(0xfff)
   12000215c:	5000a400 	b           	164(0xa4)	# 120002200 <t_setrlim+0x114>
/home/airxs/user/os/testsuites/testsuits-for-oskernel/libc-test/src/common/setrlim.c:14
   120002160:	28ffa2cd 	ld.d        	$t1, $fp, -24(0xfe8)
   120002164:	28ff42cc 	ld.d        	$t0, $fp, -48(0xfd0)
   120002168:	6c000dac 	bgeu        	$t1, $t0, 12(0xc)	# 120002174 <t_setrlim+0x88>
/home/airxs/user/os/testsuites/testsuits-for-oskernel/libc-test/src/common/setrlim.c:15
   12000216c:	02bffc0c 	addi.w      	$t0, $zero, -1(0xfff)
   120002170:	50009000 	b           	144(0x90)	# 120002200 <t_setrlim+0x114>
/home/airxs/user/os/testsuites/testsuits-for-oskernel/libc-test/src/common/setrlim.c:16
   120002174:	28ffa2cd 	ld.d        	$t1, $fp, -24(0xfe8)
   120002178:	28ff42cc 	ld.d        	$t0, $fp, -48(0xfd0)
   12000217c:	5c0019ac 	bne         	$t1, $t0, 24(0x18)	# 120002194 <t_setrlim+0xa8>
/home/airxs/user/os/testsuites/testsuits-for-oskernel/libc-test/src/common/setrlim.c:16 (discriminator 1)
   120002180:	28ff82cd 	ld.d        	$t1, $fp, -32(0xfe0)
   120002184:	28ff42cc 	ld.d        	$t0, $fp, -48(0xfd0)
   120002188:	5c000dac 	bne         	$t1, $t0, 12(0xc)	# 120002194 <t_setrlim+0xa8>
/home/airxs/user/os/testsuites/testsuits-for-oskernel/libc-test/src/common/setrlim.c:17
   12000218c:	0015000c 	move        	$t0, $zero
   120002190:	50007000 	b           	112(0x70)	# 120002200 <t_setrlim+0x114>
/home/airxs/user/os/testsuites/testsuits-for-oskernel/libc-test/src/common/setrlim.c:18
   120002194:	28ff42cc 	ld.d        	$t0, $fp, -48(0xfd0)
   120002198:	29ffa2cc 	st.d        	$t0, $fp, -24(0xfe8)
/home/airxs/user/os/testsuites/testsuits-for-oskernel/libc-test/src/common/setrlim.c:19
   12000219c:	28ff42cc 	ld.d        	$t0, $fp, -48(0xfd0)
   1200021a0:	29ff82cc 	st.d        	$t0, $fp, -32(0xfe0)
/home/airxs/user/os/testsuites/testsuits-for-oskernel/libc-test/src/common/setrlim.c:20
   1200021a4:	02ff82cd 	addi.d      	$t1, $fp, -32(0xfe0)
   1200021a8:	28bf72cc 	ld.w        	$t0, $fp, -36(0xfdc)
   1200021ac:	001501a5 	move        	$a1, $t1
   1200021b0:	00150184 	move        	$a0, $t0
   1200021b4:	545b4400 	bl          	23364(0x5b44)	# 120007cf8 <setrlimit>
   1200021b8:	0015008c 	move        	$t0, $a0
   1200021bc:	40004180 	beqz        	$t0, 64(0x40)	# 1200021fc <t_setrlim+0x110>
/home/airxs/user/os/testsuites/testsuits-for-oskernel/libc-test/src/common/setrlim.c:21
   1200021c0:	54281400 	bl          	10260(0x2814)	# 1200049d4 <__errno_location>
   1200021c4:	0015008c 	move        	$t0, $a0
   1200021c8:	2880018c 	ld.w        	$t0, $t0, 0
   1200021cc:	00150184 	move        	$a0, $t0
   1200021d0:	54285400 	bl          	10324(0x2854)	# 120004a24 <strerror>
   1200021d4:	0015008d 	move        	$t1, $a0
   1200021d8:	28bf72cc 	ld.w        	$t0, $fp, -36(0xfdc)
   1200021dc:	001501a7 	move        	$a3, $t1
   1200021e0:	28ff42c6 	ld.d        	$a2, $fp, -48(0xfd0)
   1200021e4:	00150185 	move        	$a1, $t0
   1200021e8:	1c0001c4 	pcaddu12i   	$a0, 14(0xe)
   1200021ec:	02c76084 	addi.d      	$a0, $a0, 472(0x1d8)
   1200021f0:	57f477ff 	bl          	-2956(0xffff474)	# 120001664 <t_printf>
/home/airxs/user/os/testsuites/testsuits-for-oskernel/libc-test/src/common/setrlim.c:22
   1200021f4:	02bffc0c 	addi.w      	$t0, $zero, -1(0xfff)
   1200021f8:	50000800 	b           	8(0x8)	# 120002200 <t_setrlim+0x114>
/home/airxs/user/os/testsuites/testsuits-for-oskernel/libc-test/src/common/setrlim.c:24
   1200021fc:	0015000c 	move        	$t0, $zero
/home/airxs/user/os/testsuites/testsuits-for-oskernel/libc-test/src/common/setrlim.c:25 (discriminator 1)
   120002200:	00150184 	move        	$a0, $t0
   120002204:	28c0a061 	ld.d        	$ra, $sp, 40(0x28)
   120002208:	28c08076 	ld.d        	$fp, $sp, 32(0x20)
   12000220c:	02c0c063 	addi.d      	$sp, $sp, 48(0x30)
   120002210:	4c000020 	jirl        	$zero, $ra, 0

0000000120002214 <t_setutf8>:
t_setutf8():
/home/airxs/user/os/testsuites/testsuits-for-oskernel/libc-test/src/common/utf8.c:7
   120002214:	02ffc063 	addi.d      	$sp, $sp, -16(0xff0)
   120002218:	29c02061 	st.d        	$ra, $sp, 8(0x8)
   12000221c:	29c00076 	st.d        	$fp, $sp, 0
   120002220:	02c04076 	addi.d      	$fp, $sp, 16(0x10)
/home/airxs/user/os/testsuites/testsuits-for-oskernel/libc-test/src/common/utf8.c:9
   120002224:	1c0001c5 	pcaddu12i   	$a1, 14(0xe)
   120002228:	02c750a5 	addi.d      	$a1, $a1, 468(0x1d4)
   12000222c:	00150004 	move        	$a0, $zero
   120002230:	542b8800 	bl          	11144(0x2b88)	# 120004db8 <setlocale>
   120002234:	0015008c 	move        	$t0, $a0
/home/airxs/user/os/testsuites/testsuits-for-oskernel/libc-test/src/common/utf8.c:8
   120002238:	44008d80 	bnez        	$t0, 140(0x8c)	# 1200022c4 <t_setutf8+0xb0>
/home/airxs/user/os/testsuites/testsuits-for-oskernel/libc-test/src/common/utf8.c:10
   12000223c:	1c0001c5 	pcaddu12i   	$a1, 14(0xe)
   120002240:	02c710a5 	addi.d      	$a1, $a1, 452(0x1c4)
   120002244:	00150004 	move        	$a0, $zero
   120002248:	542b7000 	bl          	11120(0x2b70)	# 120004db8 <setlocale>
   12000224c:	0015008c 	move        	$t0, $a0
/home/airxs/user/os/testsuites/testsuits-for-oskernel/libc-test/src/common/utf8.c:9
   120002250:	44007580 	bnez        	$t0, 116(0x74)	# 1200022c4 <t_setutf8+0xb0>
/home/airxs/user/os/testsuites/testsuits-for-oskernel/libc-test/src/common/utf8.c:11
   120002254:	1c0001c5 	pcaddu12i   	$a1, 14(0xe)
   120002258:	02c6f0a5 	addi.d      	$a1, $a1, 444(0x1bc)
   12000225c:	00150004 	move        	$a0, $zero
   120002260:	542b5800 	bl          	11096(0x2b58)	# 120004db8 <setlocale>
   120002264:	0015008c 	move        	$t0, $a0
/home/airxs/user/os/testsuites/testsuits-for-oskernel/libc-test/src/common/utf8.c:10
   120002268:	44005d80 	bnez        	$t0, 92(0x5c)	# 1200022c4 <t_setutf8+0xb0>
/home/airxs/user/os/testsuites/testsuits-for-oskernel/libc-test/src/common/utf8.c:12
   12000226c:	1c0001c5 	pcaddu12i   	$a1, 14(0xe)
   120002270:	02c6d0a5 	addi.d      	$a1, $a1, 436(0x1b4)
   120002274:	00150004 	move        	$a0, $zero
   120002278:	542b4000 	bl          	11072(0x2b40)	# 120004db8 <setlocale>
   12000227c:	0015008c 	move        	$t0, $a0
/home/airxs/user/os/testsuites/testsuits-for-oskernel/libc-test/src/common/utf8.c:11
   120002280:	44004580 	bnez        	$t0, 68(0x44)	# 1200022c4 <t_setutf8+0xb0>
/home/airxs/user/os/testsuites/testsuits-for-oskernel/libc-test/src/common/utf8.c:13
   120002284:	1c0001c5 	pcaddu12i   	$a1, 14(0xe)
   120002288:	02c6b0a5 	addi.d      	$a1, $a1, 428(0x1ac)
   12000228c:	00150004 	move        	$a0, $zero
   120002290:	542b2800 	bl          	11048(0x2b28)	# 120004db8 <setlocale>
   120002294:	0015008c 	move        	$t0, $a0
/home/airxs/user/os/testsuites/testsuits-for-oskernel/libc-test/src/common/utf8.c:12
   120002298:	44002d80 	bnez        	$t0, 44(0x2c)	# 1200022c4 <t_setutf8+0xb0>
/home/airxs/user/os/testsuites/testsuits-for-oskernel/libc-test/src/common/utf8.c:14
   12000229c:	1c0001c5 	pcaddu12i   	$a1, 14(0xe)
   1200022a0:	02c690a5 	addi.d      	$a1, $a1, 420(0x1a4)
   1200022a4:	00150004 	move        	$a0, $zero
   1200022a8:	542b1000 	bl          	11024(0x2b10)	# 120004db8 <setlocale>
   1200022ac:	0015008c 	move        	$t0, $a0
/home/airxs/user/os/testsuites/testsuits-for-oskernel/libc-test/src/common/utf8.c:13
   1200022b0:	44001580 	bnez        	$t0, 20(0x14)	# 1200022c4 <t_setutf8+0xb0>
/home/airxs/user/os/testsuites/testsuits-for-oskernel/libc-test/src/common/utf8.c:15
   1200022b4:	1c0001c5 	pcaddu12i   	$a1, 14(0xe)
   1200022b8:	02c650a5 	addi.d      	$a1, $a1, 404(0x194)
   1200022bc:	00150004 	move        	$a0, $zero
   1200022c0:	542af800 	bl          	11000(0x2af8)	# 120004db8 <setlocale>
/home/airxs/user/os/testsuites/testsuits-for-oskernel/libc-test/src/common/utf8.c:8
   1200022c4:	03400000 	andi        	$zero, $zero, 0x0
/home/airxs/user/os/testsuites/testsuits-for-oskernel/libc-test/src/common/utf8.c:17
   1200022c8:	02803804 	addi.w      	$a0, $zero, 14(0xe)
   1200022cc:	542acc00 	bl          	10956(0x2acc)	# 120004d98 <__nl_langinfo>
   1200022d0:	0015008c 	move        	$t0, $a0
   1200022d4:	1c0001c5 	pcaddu12i   	$a1, 14(0xe)
   1200022d8:	02c5b0a5 	addi.d      	$a1, $a1, 364(0x16c)
   1200022dc:	00150184 	move        	$a0, $t0
   1200022e0:	54709000 	bl          	28816(0x7090)	# 120009370 <strcmp>
   1200022e4:	0015008c 	move        	$t0, $a0
   1200022e8:	40002980 	beqz        	$t0, 40(0x28)	# 120002310 <t_setutf8+0xfc>
/home/airxs/user/os/testsuites/testsuits-for-oskernel/libc-test/src/common/utf8.c:18
   1200022ec:	02803804 	addi.w      	$a0, $zero, 14(0xe)
   1200022f0:	542aa800 	bl          	10920(0x2aa8)	# 120004d98 <__nl_langinfo>
   1200022f4:	0015008c 	move        	$t0, $a0
   1200022f8:	00150185 	move        	$a1, $t0
   1200022fc:	1c0001c4 	pcaddu12i   	$a0, 14(0xe)
   120002300:	02c55084 	addi.d      	$a0, $a0, 340(0x154)
   120002304:	57f363ff 	bl          	-3232(0xffff360)	# 120001664 <t_printf>
   120002308:	0015008c 	move        	$t0, $a0
   12000230c:	50000800 	b           	8(0x8)	# 120002314 <t_setutf8+0x100>
/home/airxs/user/os/testsuites/testsuits-for-oskernel/libc-test/src/common/utf8.c:20
   120002310:	0015000c 	move        	$t0, $zero
/home/airxs/user/os/testsuites/testsuits-for-oskernel/libc-test/src/common/utf8.c:21
   120002314:	00150184 	move        	$a0, $t0
   120002318:	28c02061 	ld.d        	$ra, $sp, 8(0x8)
   12000231c:	28c00076 	ld.d        	$fp, $sp, 0
   120002320:	02c04063 	addi.d      	$sp, $sp, 16(0x10)
   120002324:	4c000020 	jirl        	$zero, $ra, 0

0000000120002328 <mmax>:
mmax():
/home/airxs/user/os/testsuites/testsuits-for-oskernel/libc-test/src/common/vmfill.c:16
   120002328:	02ff0063 	addi.d      	$sp, $sp, -64(0xfc0)
   12000232c:	29c0e061 	st.d        	$ra, $sp, 56(0x38)
   120002330:	29c0c076 	st.d        	$fp, $sp, 48(0x30)
   120002334:	02c10076 	addi.d      	$fp, $sp, 64(0x40)
   120002338:	0015008c 	move        	$t0, $a0
   12000233c:	29ff02c5 	st.d        	$a1, $fp, -64(0xfc0)
   120002340:	0040818c 	slli.w      	$t0, $t0, 0x0
   120002344:	29bf32cc 	st.w        	$t0, $fp, -52(0xfcc)
/home/airxs/user/os/testsuites/testsuits-for-oskernel/libc-test/src/common/vmfill.c:20
   120002348:	28ff02cc 	ld.d        	$t0, $fp, -64(0xfc0)
   12000234c:	28c0018c 	ld.d        	$t0, $t0, 0
   120002350:	29ff82cc 	st.d        	$t0, $fp, -32(0xfe0)
   120002354:	28ff82cc 	ld.d        	$t0, $fp, -32(0xfe0)
   120002358:	29ffa2cc 	st.d        	$t0, $fp, -24(0xfe8)
   12000235c:	50009000 	b           	144(0x90)	# 1200023ec <mmax+0xc4>
/home/airxs/user/os/testsuites/testsuits-for-oskernel/libc-test/src/common/vmfill.c:21
   120002360:	28bf32cc 	ld.w        	$t0, $fp, -52(0xfcc)
   120002364:	00150009 	move        	$a5, $zero
   120002368:	00150188 	move        	$a4, $t0
   12000236c:	02808807 	addi.w      	$a3, $zero, 34(0x22)
   120002370:	00150006 	move        	$a2, $zero
   120002374:	28ff82c5 	ld.d        	$a1, $fp, -32(0xfe0)
   120002378:	00150004 	move        	$a0, $zero
   12000237c:	545a4800 	bl          	23112(0x5a48)	# 120007dc4 <__mmap>
   120002380:	29ff62c4 	st.d        	$a0, $fp, -40(0xfd8)
   120002384:	28ff62cd 	ld.d        	$t1, $fp, -40(0xfd8)
   120002388:	02bffc0c 	addi.w      	$t0, $zero, -1(0xfff)
   12000238c:	5c001dac 	bne         	$t1, $t0, 28(0x1c)	# 1200023a8 <mmax+0x80>
/home/airxs/user/os/testsuites/testsuits-for-oskernel/libc-test/src/common/vmfill.c:22
   120002390:	28ffa2cc 	ld.d        	$t0, $fp, -24(0xfe8)
   120002394:	0045058c 	srli.d      	$t0, $t0, 0x1
   120002398:	28ff82cd 	ld.d        	$t1, $fp, -32(0xfe0)
   12000239c:	0011b1ac 	sub.d       	$t0, $t1, $t0
   1200023a0:	29ff82cc 	st.d        	$t0, $fp, -32(0xfe0)
   1200023a4:	50003c00 	b           	60(0x3c)	# 1200023e0 <mmax+0xb8>
/home/airxs/user/os/testsuites/testsuits-for-oskernel/libc-test/src/common/vmfill.c:24
   1200023a8:	28ff82c5 	ld.d        	$a1, $fp, -32(0xfe0)
   1200023ac:	28ff62c4 	ld.d        	$a0, $fp, -40(0xfd8)
   1200023b0:	545b5c00 	bl          	23388(0x5b5c)	# 120007f0c <__munmap>
/home/airxs/user/os/testsuites/testsuits-for-oskernel/libc-test/src/common/vmfill.c:25
   1200023b4:	28ff82cd 	ld.d        	$t1, $fp, -32(0xfe0)
   1200023b8:	28ffa2cc 	ld.d        	$t0, $fp, -24(0xfe8)
   1200023bc:	5c0011ac 	bne         	$t1, $t0, 16(0x10)	# 1200023cc <mmax+0xa4>
/home/airxs/user/os/testsuites/testsuits-for-oskernel/libc-test/src/common/vmfill.c:26
   1200023c0:	28ff02cc 	ld.d        	$t0, $fp, -64(0xfc0)
   1200023c4:	28ff82cd 	ld.d        	$t1, $fp, -32(0xfe0)
   1200023c8:	29c0018d 	st.d        	$t1, $t0, 0
/home/airxs/user/os/testsuites/testsuits-for-oskernel/libc-test/src/common/vmfill.c:27
   1200023cc:	28ffa2cc 	ld.d        	$t0, $fp, -24(0xfe8)
   1200023d0:	0045058c 	srli.d      	$t0, $t0, 0x1
   1200023d4:	28ff82cd 	ld.d        	$t1, $fp, -32(0xfe0)
   1200023d8:	0010b1ac 	add.d       	$t0, $t1, $t0
   1200023dc:	29ff82cc 	st.d        	$t0, $fp, -32(0xfe0)
/home/airxs/user/os/testsuites/testsuits-for-oskernel/libc-test/src/common/vmfill.c:20 (discriminator 2)
   1200023e0:	28ffa2cc 	ld.d        	$t0, $fp, -24(0xfe8)
   1200023e4:	0045058c 	srli.d      	$t0, $t0, 0x1
   1200023e8:	29ffa2cc 	st.d        	$t0, $fp, -24(0xfe8)
/home/airxs/user/os/testsuites/testsuits-for-oskernel/libc-test/src/common/vmfill.c:20 (discriminator 1)
   1200023ec:	02807804 	addi.w      	$a0, $zero, 30(0x1e)
   1200023f0:	5420b000 	bl          	8368(0x20b0)	# 1200044a0 <sysconf>
   1200023f4:	0015008c 	move        	$t0, $a0
   1200023f8:	0015018d 	move        	$t1, $t0
   1200023fc:	28ffa2cc 	ld.d        	$t0, $fp, -24(0xfe8)
   120002400:	6fff618d 	bgeu        	$t0, $t1, -160(0x3ff60)	# 120002360 <mmax+0x38>
/home/airxs/user/os/testsuites/testsuits-for-oskernel/libc-test/src/common/vmfill.c:30
   120002404:	02807804 	addi.w      	$a0, $zero, 30(0x1e)
   120002408:	54209800 	bl          	8344(0x2098)	# 1200044a0 <sysconf>
   12000240c:	0015008c 	move        	$t0, $a0
   120002410:	0011b00c 	sub.d       	$t0, $zero, $t0
   120002414:	0015018d 	move        	$t1, $t0
   120002418:	28ff82cc 	ld.d        	$t0, $fp, -32(0xfe0)
   12000241c:	0014b1ac 	and         	$t0, $t1, $t0
/home/airxs/user/os/testsuites/testsuits-for-oskernel/libc-test/src/common/vmfill.c:31
   120002420:	00150184 	move        	$a0, $t0
   120002424:	28c0e061 	ld.d        	$ra, $sp, 56(0x38)
   120002428:	28c0c076 	ld.d        	$fp, $sp, 48(0x30)
   12000242c:	02c10063 	addi.d      	$sp, $sp, 64(0x40)
   120002430:	4c000020 	jirl        	$zero, $ra, 0

0000000120002434 <t_vmfill>:
t_vmfill():
/home/airxs/user/os/testsuites/testsuits-for-oskernel/libc-test/src/common/vmfill.c:39
   120002434:	02fec063 	addi.d      	$sp, $sp, -80(0xfb0)
   120002438:	29c12061 	st.d        	$ra, $sp, 72(0x48)
   12000243c:	29c10076 	st.d        	$fp, $sp, 64(0x40)
   120002440:	02c14076 	addi.d      	$fp, $sp, 80(0x50)
   120002444:	29ff22c4 	st.d        	$a0, $fp, -56(0xfc8)
   120002448:	29ff02c5 	st.d        	$a1, $fp, -64(0xfc0)
   12000244c:	001500cc 	move        	$t0, $a2
   120002450:	0040818c 	slli.w      	$t0, $t0, 0x0
   120002454:	29bef2cc 	st.w        	$t0, $fp, -68(0xfbc)
/home/airxs/user/os/testsuites/testsuits-for-oskernel/libc-test/src/common/vmfill.c:40
   120002458:	02bffc0c 	addi.w      	$t0, $zero, -1(0xfff)
   12000245c:	29bfa2cc 	st.w        	$t0, $fp, -24(0xfe8)
/home/airxs/user/os/testsuites/testsuits-for-oskernel/libc-test/src/common/vmfill.c:41
   120002460:	0320000c 	lu52i.d     	$t0, $zero, -2048(0x800)
   120002464:	29ff42cc 	st.d        	$t0, $fp, -48(0xfd0)
/home/airxs/user/os/testsuites/testsuits-for-oskernel/libc-test/src/common/vmfill.c:46
   120002468:	29bfb2c0 	st.w        	$zero, $fp, -20(0xfec)
/home/airxs/user/os/testsuites/testsuits-for-oskernel/libc-test/src/common/vmfill.c:47
   12000246c:	02ff42cd 	addi.d      	$t1, $fp, -48(0xfd0)
   120002470:	28bfa2cc 	ld.w        	$t0, $fp, -24(0xfe8)
   120002474:	001501a5 	move        	$a1, $t1
   120002478:	00150184 	move        	$a0, $t0
   12000247c:	57feafff 	bl          	-340(0xffffeac)	# 120002328 <mmax>
   120002480:	29ff82c4 	st.d        	$a0, $fp, -32(0xfe0)
/home/airxs/user/os/testsuites/testsuits-for-oskernel/libc-test/src/common/vmfill.c:48
   120002484:	28ff82cc 	ld.d        	$t0, $fp, -32(0xfe0)
   120002488:	40008980 	beqz        	$t0, 136(0x88)	# 120002510 <t_vmfill+0xdc>
/home/airxs/user/os/testsuites/testsuits-for-oskernel/libc-test/src/common/vmfill.c:50
   12000248c:	28bfa2cc 	ld.w        	$t0, $fp, -24(0xfe8)
   120002490:	00150009 	move        	$a5, $zero
   120002494:	00150188 	move        	$a4, $t0
   120002498:	02808807 	addi.w      	$a3, $zero, 34(0x22)
   12000249c:	00150006 	move        	$a2, $zero
   1200024a0:	28ff82c5 	ld.d        	$a1, $fp, -32(0xfe0)
   1200024a4:	00150004 	move        	$a0, $zero
   1200024a8:	54591c00 	bl          	22812(0x591c)	# 120007dc4 <__mmap>
   1200024ac:	29ff62c4 	st.d        	$a0, $fp, -40(0xfd8)
/home/airxs/user/os/testsuites/testsuits-for-oskernel/libc-test/src/common/vmfill.c:51
   1200024b0:	28ff62cd 	ld.d        	$t1, $fp, -40(0xfd8)
   1200024b4:	02bffc0c 	addi.w      	$t0, $zero, -1(0xfff)
   1200024b8:	5c000dac 	bne         	$t1, $t0, 12(0xc)	# 1200024c4 <t_vmfill+0x90>
/home/airxs/user/os/testsuites/testsuits-for-oskernel/libc-test/src/common/vmfill.c:52
   1200024bc:	02bffc0c 	addi.w      	$t0, $zero, -1(0xfff)
   1200024c0:	50005800 	b           	88(0x58)	# 120002518 <t_vmfill+0xe4>
/home/airxs/user/os/testsuites/testsuits-for-oskernel/libc-test/src/common/vmfill.c:53
   1200024c4:	28bfb2cd 	ld.w        	$t1, $fp, -20(0xfec)
   1200024c8:	28bef2cc 	ld.w        	$t0, $fp, -68(0xfbc)
   1200024cc:	640035ac 	bge         	$t1, $t0, 52(0x34)	# 120002500 <t_vmfill+0xcc>
/home/airxs/user/os/testsuites/testsuits-for-oskernel/libc-test/src/common/vmfill.c:54
   1200024d0:	28bfb2cc 	ld.w        	$t0, $fp, -20(0xfec)
   1200024d4:	00410d8c 	slli.d      	$t0, $t0, 0x3
   1200024d8:	28ff22cd 	ld.d        	$t1, $fp, -56(0xfc8)
   1200024dc:	0010b1ac 	add.d       	$t0, $t1, $t0
   1200024e0:	28ff62cd 	ld.d        	$t1, $fp, -40(0xfd8)
   1200024e4:	29c0018d 	st.d        	$t1, $t0, 0
/home/airxs/user/os/testsuites/testsuits-for-oskernel/libc-test/src/common/vmfill.c:55
   1200024e8:	28bfb2cc 	ld.w        	$t0, $fp, -20(0xfec)
   1200024ec:	00410d8c 	slli.d      	$t0, $t0, 0x3
   1200024f0:	28ff02cd 	ld.d        	$t1, $fp, -64(0xfc0)
   1200024f4:	0010b1ac 	add.d       	$t0, $t1, $t0
   1200024f8:	28ff82cd 	ld.d        	$t1, $fp, -32(0xfe0)
   1200024fc:	29c0018d 	st.d        	$t1, $t0, 0
/home/airxs/user/os/testsuites/testsuits-for-oskernel/libc-test/src/common/vmfill.c:46
   120002500:	28bfb2cc 	ld.w        	$t0, $fp, -20(0xfec)
   120002504:	0280058c 	addi.w      	$t0, $t0, 1(0x1)
   120002508:	29bfb2cc 	st.w        	$t0, $fp, -20(0xfec)
/home/airxs/user/os/testsuites/testsuits-for-oskernel/libc-test/src/common/vmfill.c:47
   12000250c:	53ff63ff 	b           	-160(0xfffff60)	# 12000246c <t_vmfill+0x38>
/home/airxs/user/os/testsuites/testsuits-for-oskernel/libc-test/src/common/vmfill.c:49
   120002510:	03400000 	andi        	$zero, $zero, 0x0
/home/airxs/user/os/testsuites/testsuits-for-oskernel/libc-test/src/common/vmfill.c:58
   120002514:	28bfb2cc 	ld.w        	$t0, $fp, -20(0xfec)
/home/airxs/user/os/testsuites/testsuits-for-oskernel/libc-test/src/common/vmfill.c:59 (discriminator 1)
   120002518:	00150184 	move        	$a0, $t0
   12000251c:	28c12061 	ld.d        	$ra, $sp, 72(0x48)
   120002520:	28c10076 	ld.d        	$fp, $sp, 64(0x40)
   120002524:	02c14063 	addi.d      	$sp, $sp, 80(0x50)
   120002528:	4c000020 	jirl        	$zero, $ra, 0
   12000252c:	03400000 	andi        	$zero, $zero, 0x0

0000000120002530 <__addtf3>:
__addtf3():
   120002530:	0114c808 	movfcsr2gr  	$a4, $zero
   120002534:	00fec0ab 	bstrpick.d  	$a7, $a1, 0x3e, 0x30
   120002538:	00ef00b0 	bstrpick.d  	$t4, $a1, 0x2f, 0x0
   12000253c:	00fec0ea 	bstrpick.d  	$a6, $a3, 0x3e, 0x30
   120002540:	00ef00ef 	bstrpick.d  	$t3, $a3, 0x2f, 0x0
   120002544:	0045f48d 	srli.d      	$t1, $a0, 0x3d
   120002548:	00410def 	slli.d      	$t3, $t3, 0x3
   12000254c:	0045fca5 	srli.d      	$a1, $a1, 0x3f
   120002550:	00410e10 	slli.d      	$t4, $t4, 0x3
   120002554:	0045f4d4 	srli.d      	$t8, $a2, 0x3d
   120002558:	0011a971 	sub.d       	$t5, $a7, $a6
   12000255c:	0045fce7 	srli.d      	$a3, $a3, 0x3f
   120002560:	001541b2 	or          	$t6, $t1, $t4
   120002564:	00df0113 	bstrpick.d  	$t7, $a4, 0x1f, 0x0
   120002568:	00153e8d 	or          	$t1, $t8, $t3
   12000256c:	001500a9 	move        	$a5, $a1
   120002570:	00410c8e 	slli.d      	$t2, $a0, 0x3
   120002574:	00410ccf 	slli.d      	$t3, $a2, 0x3
   120002578:	0015022c 	move        	$t0, $t5
   12000257c:	5801f8a7 	beq         	$a1, $a3, 504(0x1f8)	# 120002774 <__addtf3+0x244>
   120002580:	64019011 	bge         	$zero, $t5, 400(0x190)	# 120002710 <__addtf3+0x1e0>
   120002584:	4002c540 	beqz        	$a6, 708(0x2c4)	# 120002848 <__addtf3+0x318>
   120002588:	140000f0 	lu12i.w     	$t4, 7(0x7)
   12000258c:	03bffe10 	ori         	$t4, $t4, 0xfff
   120002590:	5809c970 	beq         	$a7, $t4, 2504(0x9c8)	# 120002f58 <__addtf3+0xa28>
   120002594:	00150010 	move        	$t4, $zero
   120002598:	17000010 	lu32i.d     	$t4, -524288(0x80000)
   12000259c:	03000210 	lu52i.d     	$t4, $t4, 0
   1200025a0:	001541ad 	or          	$t1, $t1, $t4
   1200025a4:	00153db4 	or          	$t8, $t1, $t3
   1200025a8:	0281d010 	addi.w      	$t4, $zero, 116(0x74)
   1200025ac:	0012d014 	sltu        	$t8, $zero, $t8
   1200025b0:	60003a0c 	blt         	$t4, $t0, 56(0x38)	# 1200025e8 <__addtf3+0xb8>
   1200025b4:	0280fc10 	addi.w      	$t4, $zero, 63(0x3f)
   1200025b8:	6007e20c 	blt         	$t4, $t0, 2016(0x7e0)	# 120002d98 <__addtf3+0x868>
   1200025bc:	02810010 	addi.w      	$t4, $zero, 64(0x40)
   1200025c0:	00113210 	sub.w       	$t4, $t4, $t0
   1200025c4:	0040818c 	slli.w      	$t0, $t0, 0x0
   1200025c8:	001931f1 	srl.d       	$t5, $t3, $t0
   1200025cc:	0018c1b4 	sll.d       	$t8, $t1, $t4
   1200025d0:	0018c1ef 	sll.d       	$t3, $t3, $t4
   1200025d4:	00154694 	or          	$t8, $t8, $t5
   1200025d8:	0012bc0f 	sltu        	$t3, $zero, $t3
   1200025dc:	001931ac 	srl.d       	$t0, $t1, $t0
   1200025e0:	00153e94 	or          	$t8, $t8, $t3
   1200025e4:	0011b252 	sub.d       	$t6, $t6, $t0
   1200025e8:	0011d1d4 	sub.d       	$t8, $t2, $t8
   1200025ec:	0012d1ce 	sltu        	$t2, $t2, $t8
   1200025f0:	0011ba52 	sub.d       	$t6, $t6, $t2
   1200025f4:	00f3ce4c 	bstrpick.d  	$t0, $t6, 0x33, 0x33
   1200025f8:	4402b980 	bnez        	$t0, 696(0x2b8)	# 1200028b0 <__addtf3+0x380>
   1200025fc:	00154a8c 	or          	$t0, $t8, $t6
   120002600:	44065560 	bnez        	$a7, 1620(0x654)	# 120002c54 <__addtf3+0x724>
   120002604:	0015000e 	move        	$t2, $zero
   120002608:	00150010 	move        	$t4, $zero
   12000260c:	00150011 	move        	$t5, $zero
   120002610:	40044d80 	beqz        	$t0, 1100(0x44c)	# 120002a5c <__addtf3+0x52c>
   120002614:	03401e8c 	andi        	$t0, $t8, 0x7
   120002618:	0041068e 	slli.d      	$t2, $t8, 0x1
   12000261c:	0045fe8d 	srli.d      	$t1, $t8, 0x3f
   120002620:	03401dcf 	andi        	$t3, $t2, 0x7
   120002624:	002c364d 	alsl.d      	$t1, $t6, $t1, 0x1
   120002628:	00150004 	move        	$a0, $zero
   12000262c:	400021e0 	beqz        	$t3, 32(0x20)	# 12000264c <__addtf3+0x11c>
   120002630:	034c010f 	andi        	$t3, $a4, 0x300
   120002634:	02880010 	addi.w      	$t4, $zero, 512(0x200)
   120002638:	58096df0 	beq         	$t3, $t4, 2412(0x96c)	# 120002fa4 <__addtf3+0xa74>
   12000263c:	028c0010 	addi.w      	$t4, $zero, 768(0x300)
   120002640:	580945f0 	beq         	$t3, $t4, 2372(0x944)	# 120002f84 <__addtf3+0xa54>
   120002644:	14000204 	lu12i.w     	$a0, 16(0x10)
   120002648:	40097de0 	beqz        	$t3, 2428(0x97c)	# 120002fc4 <__addtf3+0xa94>
   12000264c:	0300040e 	lu52i.d     	$t2, $zero, 1(0x1)
   120002650:	0014b9ad 	and         	$t1, $t1, $t2
   120002654:	024005b0 	sltui       	$t4, $t1, 1(0x1)
   120002658:	400e6580 	beqz        	$t0, 3684(0xe64)	# 1200034bc <__addtf3+0xf8c>
   12000265c:	00150011 	move        	$t5, $zero
   120002660:	034c010c 	andi        	$t0, $a4, 0x300
   120002664:	0288000d 	addi.w      	$t1, $zero, 512(0x200)
   120002668:	5804e98d 	beq         	$t0, $t1, 1256(0x4e8)	# 120002b50 <__addtf3+0x620>
   12000266c:	028c000d 	addi.w      	$t1, $zero, 768(0x300)
   120002670:	5804898d 	beq         	$t0, $t1, 1160(0x488)	# 120002af8 <__addtf3+0x5c8>
   120002674:	4004b580 	beqz        	$t0, 1204(0x4b4)	# 120002b28 <__addtf3+0x5f8>
   120002678:	0015000f 	move        	$t3, $zero
   12000267c:	1700000f 	lu32i.d     	$t3, -524288(0x80000)
   120002680:	030001ef 	lu52i.d     	$t3, $t3, 0
   120002684:	0014be4f 	and         	$t3, $t6, $t3
   120002688:	14000204 	lu12i.w     	$a0, 16(0x10)
   12000268c:	40000e00 	beqz        	$t4, 12(0xc)	# 120002698 <__addtf3+0x168>
   120002690:	1400040c 	lu12i.w     	$t0, 32(0x20)
   120002694:	00153084 	or          	$a0, $a0, $t0
   120002698:	400e69e0 	beqz        	$t3, 3688(0xe68)	# 120003500 <__addtf3+0xfd0>
   12000269c:	140000ec 	lu12i.w     	$t0, 7(0x7)
   1200026a0:	02c00631 	addi.d      	$t5, $t5, 1(0x1)
   1200026a4:	03bffd8c 	ori         	$t0, $t0, 0xfff
   1200026a8:	58037e2c 	beq         	$t5, $t0, 892(0x37c)	# 120002a24 <__addtf3+0x4f4>
   1200026ac:	02bffc10 	addi.w      	$t4, $zero, -1(0xfff)
   1200026b0:	16fffff0 	lu32i.d     	$t4, 524287(0x7ffff)
   1200026b4:	033ffe10 	lu52i.d     	$t4, $t4, -1(0xfff)
   1200026b8:	0014c250 	and         	$t4, $t6, $t4
   1200026bc:	0041f60e 	slli.d      	$t2, $t4, 0x3d
   1200026c0:	0040a08c 	slli.w      	$t0, $a0, 0x8
   1200026c4:	00450e94 	srli.d      	$t8, $t8, 0x3
   1200026c8:	0015118c 	or          	$t0, $t0, $a0
   1200026cc:	001551ce 	or          	$t2, $t2, $t8
   1200026d0:	00f20e10 	bstrpick.d  	$t4, $t4, 0x32, 0x3
   1200026d4:	00ce0231 	bstrpick.d  	$t5, $t5, 0xe, 0x0
   1200026d8:	15c1ffed 	lu12i.w     	$t1, -126977(0xe0fff)
   1200026dc:	0015000f 	move        	$t3, $zero
   1200026e0:	03bffdad 	ori         	$t1, $t1, 0xfff
   1200026e4:	00af020f 	bstrins.d   	$t3, $t4, 0x2f, 0x0
   1200026e8:	0014b66d 	and         	$t1, $t7, $t1
   1200026ec:	00bec22f 	bstrins.d   	$t3, $t5, 0x3e, 0x30
   1200026f0:	001531ac 	or          	$t0, $t1, $t0
   1200026f4:	00bffcaf 	bstrins.d   	$t3, $a1, 0x3f, 0x3f
   1200026f8:	0040818c 	slli.w      	$t0, $t0, 0x0
   1200026fc:	0114c180 	movgr2fcsr  	$zero, $t0
   120002700:	001501c4 	move        	$a0, $t2
   120002704:	001501e5 	move        	$a1, $t3
   120002708:	4c000020 	jirl        	$zero, $ra, 0
   12000270c:	03400000 	andi        	$zero, $zero, 0x0
   120002710:	44021220 	bnez        	$t5, 528(0x210)	# 120002920 <__addtf3+0x3f0>
   120002714:	140000f4 	lu12i.w     	$t8, 7(0x7)
   120002718:	02c00570 	addi.d      	$t4, $a7, 1(0x1)
   12000271c:	03bffa8c 	ori         	$t0, $t8, 0xffe
   120002720:	0014b210 	and         	$t4, $t4, $t0
   120002724:	4404f200 	bnez        	$t4, 1264(0x4f0)	# 120002c14 <__addtf3+0x6e4>
   120002728:	00153a51 	or          	$t5, $t6, $t2
   12000272c:	00153dac 	or          	$t0, $t1, $t3
   120002730:	44095160 	bnez        	$a7, 2384(0x950)	# 120003080 <__addtf3+0xb50>
   120002734:	4007be20 	beqz        	$t5, 1980(0x7bc)	# 120002ef0 <__addtf3+0x9c0>
   120002738:	40081980 	beqz        	$t0, 2072(0x818)	# 120002f50 <__addtf3+0xa20>
   12000273c:	0011bdd1 	sub.d       	$t5, $t2, $t3
   120002740:	0012c5cc 	sltu        	$t0, $t2, $t5
   120002744:	0011b650 	sub.d       	$t4, $t6, $t1
   120002748:	0011b210 	sub.d       	$t4, $t4, $t0
   12000274c:	00f3ce0c 	bstrpick.d  	$t0, $t4, 0x33, 0x33
   120002750:	4007e980 	beqz        	$t0, 2024(0x7e8)	# 120002f38 <__addtf3+0xa08>
   120002754:	0011b9f4 	sub.d       	$t8, $t3, $t2
   120002758:	0011c9ad 	sub.d       	$t1, $t1, $t6
   12000275c:	0012d1ef 	sltu        	$t3, $t3, $t8
   120002760:	0011bdb2 	sub.d       	$t6, $t1, $t3
   120002764:	001500e5 	move        	$a1, $a3
   120002768:	00154a8c 	or          	$t0, $t8, $t6
   12000276c:	001500e9 	move        	$a5, $a3
   120002770:	53fe97ff 	b           	-364(0xffffe94)	# 120002604 <__addtf3+0xd4>
   120002774:	64032411 	bge         	$zero, $t5, 804(0x324)	# 120002a98 <__addtf3+0x568>
   120002778:	40020d40 	beqz        	$a6, 524(0x20c)	# 120002984 <__addtf3+0x454>
   12000277c:	140000f0 	lu12i.w     	$t4, 7(0x7)
   120002780:	03bffe10 	ori         	$t4, $t4, 0xfff
   120002784:	58093d70 	beq         	$a7, $t4, 2364(0x93c)	# 1200030c0 <__addtf3+0xb90>
   120002788:	00150010 	move        	$t4, $zero
   12000278c:	17000010 	lu32i.d     	$t4, -524288(0x80000)
   120002790:	03000210 	lu52i.d     	$t4, $t4, 0
   120002794:	001541ad 	or          	$t1, $t1, $t4
   120002798:	00153db4 	or          	$t8, $t1, $t3
   12000279c:	0281d010 	addi.w      	$t4, $zero, 116(0x74)
   1200027a0:	0012d014 	sltu        	$t8, $zero, $t8
   1200027a4:	60003a0c 	blt         	$t4, $t0, 56(0x38)	# 1200027dc <__addtf3+0x2ac>
   1200027a8:	0280fc10 	addi.w      	$t4, $zero, 63(0x3f)
   1200027ac:	6006860c 	blt         	$t4, $t0, 1668(0x684)	# 120002e30 <__addtf3+0x900>
   1200027b0:	02810010 	addi.w      	$t4, $zero, 64(0x40)
   1200027b4:	00113210 	sub.w       	$t4, $t4, $t0
   1200027b8:	0040818c 	slli.w      	$t0, $t0, 0x0
   1200027bc:	001931f1 	srl.d       	$t5, $t3, $t0
   1200027c0:	0018c1b4 	sll.d       	$t8, $t1, $t4
   1200027c4:	0018c1ef 	sll.d       	$t3, $t3, $t4
   1200027c8:	00154694 	or          	$t8, $t8, $t5
   1200027cc:	0012bc0f 	sltu        	$t3, $zero, $t3
   1200027d0:	001931ac 	srl.d       	$t0, $t1, $t0
   1200027d4:	00153e94 	or          	$t8, $t8, $t3
   1200027d8:	0010b252 	add.d       	$t6, $t6, $t0
   1200027dc:	0010ba94 	add.d       	$t8, $t8, $t2
   1200027e0:	0012ba8e 	sltu        	$t2, $t8, $t2
   1200027e4:	0010ba52 	add.d       	$t6, $t6, $t2
   1200027e8:	00f3ce4c 	bstrpick.d  	$t0, $t6, 0x33, 0x33
   1200027ec:	43fe119f 	beqz        	$t0, -496(0x7ffe10)	# 1200025fc <__addtf3+0xcc>
   1200027f0:	140000ed 	lu12i.w     	$t1, 7(0x7)
   1200027f4:	02c00571 	addi.d      	$t5, $a7, 1(0x1)
   1200027f8:	03bffdac 	ori         	$t0, $t1, 0xfff
   1200027fc:	5807ee2c 	beq         	$t5, $t0, 2028(0x7ec)	# 120002fe8 <__addtf3+0xab8>
   120002800:	02bffc10 	addi.w      	$t4, $zero, -1(0xfff)
   120002804:	16fffff0 	lu32i.d     	$t4, 524287(0x7ffff)
   120002808:	033ffe10 	lu52i.d     	$t4, $t4, -1(0xfff)
   12000280c:	0014c250 	and         	$t4, $t6, $t4
   120002810:	0045068c 	srli.d      	$t0, $t8, 0x1
   120002814:	03400694 	andi        	$t8, $t8, 0x1
   120002818:	00155194 	or          	$t8, $t0, $t8
   12000281c:	0041fe0e 	slli.d      	$t2, $t4, 0x3f
   120002820:	001551d4 	or          	$t8, $t2, $t8
   120002824:	00450612 	srli.d      	$t6, $t4, 0x1
   120002828:	03401e8f 	andi        	$t3, $t8, 0x7
   12000282c:	00150010 	move        	$t4, $zero
   120002830:	47fe31ff 	bnez        	$t3, -464(0x7ffe30)	# 120002660 <__addtf3+0x130>
   120002834:	1700000f 	lu32i.d     	$t3, -524288(0x80000)
   120002838:	030001ef 	lu52i.d     	$t3, $t3, 0
   12000283c:	0014be4f 	and         	$t3, $t6, $t3
   120002840:	00150004 	move        	$a0, $zero
   120002844:	53fe57ff 	b           	-428(0xffffe54)	# 120002698 <__addtf3+0x168>
   120002848:	00153db0 	or          	$t4, $t1, $t3
   12000284c:	40035600 	beqz        	$t4, 852(0x354)	# 120002ba0 <__addtf3+0x670>
   120002850:	02bffe2c 	addi.w      	$t0, $t5, -1(0xfff)
   120002854:	40003d80 	beqz        	$t0, 60(0x3c)	# 120002890 <__addtf3+0x360>
   120002858:	140000f0 	lu12i.w     	$t4, 7(0x7)
   12000285c:	03bffe10 	ori         	$t4, $t4, 0xfff
   120002860:	5ffd4630 	bne         	$t5, $t4, -700(0x3fd44)	# 1200025a4 <__addtf3+0x74>
   120002864:	00153a4c 	or          	$t0, $t6, $t2
   120002868:	40036980 	beqz        	$t0, 872(0x368)	# 120002bd0 <__addtf3+0x6a0>
   12000286c:	1680000a 	lu32i.d     	$a6, 262144(0x40000)
   120002870:	0041f64e 	slli.d      	$t2, $t6, 0x3d
   120002874:	00fc0084 	bstrpick.d  	$a0, $a0, 0x3c, 0x0
   120002878:	0014aa4a 	and         	$a6, $t6, $a6
   12000287c:	1420200c 	lu12i.w     	$t0, 65792(0x10100)
   120002880:	001511ce 	or          	$t2, $t2, $a0
   120002884:	00450e50 	srli.d      	$t4, $t6, 0x3
   120002888:	0013a98c 	masknez     	$t0, $t0, $a6
   12000288c:	50014400 	b           	324(0x144)	# 1200029d0 <__addtf3+0x4a0>
   120002890:	0011bdd4 	sub.d       	$t8, $t2, $t3
   120002894:	0011b64d 	sub.d       	$t1, $t6, $t1
   120002898:	0012d1ce 	sltu        	$t2, $t2, $t8
   12000289c:	0011b9b2 	sub.d       	$t6, $t1, $t2
   1200028a0:	00f3ce4c 	bstrpick.d  	$t0, $t6, 0x33, 0x33
   1200028a4:	40030d80 	beqz        	$t0, 780(0x30c)	# 120002bb0 <__addtf3+0x680>
   1200028a8:	0015022b 	move        	$a7, $t5
   1200028ac:	03400000 	andi        	$zero, $zero, 0x0
   1200028b0:	00f20244 	bstrpick.d  	$a0, $t6, 0x32, 0x0
   1200028b4:	00002491 	clz.d       	$t5, $a0
   1200028b8:	02bfd231 	addi.w      	$t5, $t5, -12(0xff4)
   1200028bc:	4402c480 	bnez        	$a0, 708(0x2c4)	# 120002b80 <__addtf3+0x650>
   1200028c0:	00002691 	clz.d       	$t5, $t8
   1200028c4:	02bfd230 	addi.w      	$t4, $t5, -12(0xff4)
   1200028c8:	0280fc06 	addi.w      	$a2, $zero, 63(0x3f)
   1200028cc:	02c0d231 	addi.d      	$t5, $t5, 52(0x34)
   1200028d0:	0018c290 	sll.d       	$t4, $t8, $t4
   1200028d4:	6402acd1 	bge         	$a2, $t5, 684(0x2ac)	# 120002b80 <__addtf3+0x650>
   1200028d8:	60028a2b 	blt         	$t5, $a7, 648(0x288)	# 120002b60 <__addtf3+0x630>
   1200028dc:	0040816b 	slli.w      	$a7, $a7, 0x0
   1200028e0:	00112e31 	sub.w       	$t5, $t5, $a7
   1200028e4:	0280062f 	addi.w      	$t3, $t5, 1(0x1)
   1200028e8:	0280fc0c 	addi.w      	$t0, $zero, 63(0x3f)
   1200028ec:	6004758f 	blt         	$t0, $t3, 1140(0x474)	# 120002d60 <__addtf3+0x830>
   1200028f0:	0281000c 	addi.w      	$t0, $zero, 64(0x40)
   1200028f4:	00113d8c 	sub.w       	$t0, $t0, $t3
   1200028f8:	004081ef 	slli.w      	$t3, $t3, 0x0
   1200028fc:	0018b214 	sll.d       	$t8, $t4, $t0
   120002900:	00193c8d 	srl.d       	$t1, $a0, $t3
   120002904:	0018b08c 	sll.d       	$t0, $a0, $t0
   120002908:	00153694 	or          	$t8, $t8, $t1
   12000290c:	0012b00c 	sltu        	$t0, $zero, $t0
   120002910:	00153294 	or          	$t8, $t8, $t0
   120002914:	00193e12 	srl.d       	$t6, $t4, $t3
   120002918:	00154a8c 	or          	$t0, $t8, $t6
   12000291c:	53fcebff 	b           	-792(0xffffce8)	# 120002604 <__addtf3+0xd4>
   120002920:	4403c160 	bnez        	$a7, 960(0x3c0)	# 120002ce0 <__addtf3+0x7b0>
   120002924:	00153a50 	or          	$t4, $t6, $t2
   120002928:	40057200 	beqz        	$t4, 1392(0x570)	# 120002e98 <__addtf3+0x968>
   12000292c:	02bffc10 	addi.w      	$t4, $zero, -1(0xfff)
   120002930:	5809da30 	beq         	$t5, $t4, 2520(0x9d8)	# 120003308 <__addtf3+0xdd8>
   120002934:	140000f0 	lu12i.w     	$t4, 7(0x7)
   120002938:	03bffe10 	ori         	$t4, $t4, 0xfff
   12000293c:	0014440c 	nor         	$t0, $zero, $t5
   120002940:	5c03c150 	bne         	$a6, $t4, 960(0x3c0)	# 120002d00 <__addtf3+0x7d0>
   120002944:	00153dac 	or          	$t0, $t1, $t3
   120002948:	4007f980 	beqz        	$t0, 2040(0x7f8)	# 120003140 <__addtf3+0xc10>
   12000294c:	1680000b 	lu32i.d     	$a7, 262144(0x40000)
   120002950:	0014adac 	and         	$t0, $t1, $a7
   120002954:	0240058c 	sltui       	$t0, $t0, 1(0x1)
   120002958:	00df018c 	bstrpick.d  	$t0, $t0, 0x1f, 0x0
   12000295c:	0011b00c 	sub.d       	$t0, $zero, $t0
   120002960:	0041f5ae 	slli.d      	$t2, $t1, 0x3d
   120002964:	00fc00c6 	bstrpick.d  	$a2, $a2, 0x3c, 0x0
   120002968:	1420200f 	lu12i.w     	$t3, 65792(0x10100)
   12000296c:	0014bd8c 	and         	$t0, $t0, $t3
   120002970:	001538ce 	or          	$t2, $a2, $t2
   120002974:	00450db0 	srli.d      	$t4, $t1, 0x3
   120002978:	001500e5 	move        	$a1, $a3
   12000297c:	02c0018c 	addi.d      	$t0, $t0, 0
   120002980:	50005000 	b           	80(0x50)	# 1200029d0 <__addtf3+0x4a0>
   120002984:	00153db0 	or          	$t4, $t1, $t3
   120002988:	40021a00 	beqz        	$t4, 536(0x218)	# 120002ba0 <__addtf3+0x670>
   12000298c:	02bffe2c 	addi.w      	$t0, $t5, -1(0xfff)
   120002990:	4004d180 	beqz        	$t0, 1232(0x4d0)	# 120002e60 <__addtf3+0x930>
   120002994:	140000f0 	lu12i.w     	$t4, 7(0x7)
   120002998:	03bffe10 	ori         	$t4, $t4, 0xfff
   12000299c:	5ffdfe30 	bne         	$t5, $t4, -516(0x3fdfc)	# 120002798 <__addtf3+0x268>
   1200029a0:	00153a4c 	or          	$t0, $t6, $t2
   1200029a4:	40022d80 	beqz        	$t0, 556(0x22c)	# 120002bd0 <__addtf3+0x6a0>
   1200029a8:	1680000a 	lu32i.d     	$a6, 262144(0x40000)
   1200029ac:	0014aa4c 	and         	$t0, $t6, $a6
   1200029b0:	0240058c 	sltui       	$t0, $t0, 1(0x1)
   1200029b4:	0041518c 	slli.d      	$t0, $t0, 0x14
   1200029b8:	00450dce 	srli.d      	$t2, $t2, 0x3
   1200029bc:	0041f64f 	slli.d      	$t3, $t6, 0x3d
   1200029c0:	0040a18d 	slli.w      	$t1, $t0, 0x8
   1200029c4:	00153dce 	or          	$t2, $t2, $t3
   1200029c8:	00450e50 	srli.d      	$t4, $t6, 0x3
   1200029cc:	0015358c 	or          	$t0, $t0, $t1
   1200029d0:	00153a0d 	or          	$t1, $t4, $t2
   1200029d4:	400b19a0 	beqz        	$t1, 2840(0xb18)	# 1200034ec <__addtf3+0xfbc>
   1200029d8:	0015000d 	move        	$t1, $zero
   1200029dc:	1610000d 	lu32i.d     	$t1, 32768(0x8000)
   1200029e0:	00153610 	or          	$t4, $t4, $t1
   1200029e4:	15c1ffed 	lu12i.w     	$t1, -126977(0xe0fff)
   1200029e8:	00ef0210 	bstrpick.d  	$t4, $t4, 0x2f, 0x0
   1200029ec:	140000f1 	lu12i.w     	$t5, 7(0x7)
   1200029f0:	0015000f 	move        	$t3, $zero
   1200029f4:	03bffdad 	ori         	$t1, $t1, 0xfff
   1200029f8:	03bffe31 	ori         	$t5, $t5, 0xfff
   1200029fc:	00af020f 	bstrins.d   	$t3, $t4, 0x2f, 0x0
   120002a00:	0014b66d 	and         	$t1, $t7, $t1
   120002a04:	00bec22f 	bstrins.d   	$t3, $t5, 0x3e, 0x30
   120002a08:	001531ac 	or          	$t0, $t1, $t0
   120002a0c:	00bffcaf 	bstrins.d   	$t3, $a1, 0x3f, 0x3f
   120002a10:	0040818c 	slli.w      	$t0, $t0, 0x0
   120002a14:	0114c180 	movgr2fcsr  	$zero, $t0
   120002a18:	001501c4 	move        	$a0, $t2
   120002a1c:	001501e5 	move        	$a1, $t3
   120002a20:	4c000020 	jirl        	$zero, $ra, 0
   120002a24:	034c010c 	andi        	$t0, $a4, 0x300
   120002a28:	40019980 	beqz        	$t0, 408(0x198)	# 120002bc0 <__addtf3+0x690>
   120002a2c:	0288000d 	addi.w      	$t1, $zero, 512(0x200)
   120002a30:	5801898d 	beq         	$t0, $t1, 392(0x188)	# 120002bb8 <__addtf3+0x688>
   120002a34:	028c000d 	addi.w      	$t1, $zero, 768(0x300)
   120002a38:	5804498d 	beq         	$t0, $t1, 1096(0x448)	# 120002e80 <__addtf3+0x950>
   120002a3c:	14000a0c 	lu12i.w     	$t0, 80(0x50)
   120002a40:	00153084 	or          	$a0, $a0, $t0
   120002a44:	0040a08c 	slli.w      	$t0, $a0, 0x8
   120002a48:	0015118c 	or          	$t0, $t0, $a0
   120002a4c:	02bffc0e 	addi.w      	$t2, $zero, -1(0xfff)
   120002a50:	140000f1 	lu12i.w     	$t5, 7(0x7)
   120002a54:	0307fdd0 	lu52i.d     	$t4, $t2, 511(0x1ff)
   120002a58:	03bffa31 	ori         	$t5, $t5, 0xffe
   120002a5c:	00ef0210 	bstrpick.d  	$t4, $t4, 0x2f, 0x0
   120002a60:	00ce0231 	bstrpick.d  	$t5, $t5, 0xe, 0x0
   120002a64:	15c1ffed 	lu12i.w     	$t1, -126977(0xe0fff)
   120002a68:	0015000f 	move        	$t3, $zero
   120002a6c:	03bffdad 	ori         	$t1, $t1, 0xfff
   120002a70:	00af020f 	bstrins.d   	$t3, $t4, 0x2f, 0x0
   120002a74:	0014b66d 	and         	$t1, $t7, $t1
   120002a78:	00bec22f 	bstrins.d   	$t3, $t5, 0x3e, 0x30
   120002a7c:	001531ac 	or          	$t0, $t1, $t0
   120002a80:	00bffcaf 	bstrins.d   	$t3, $a1, 0x3f, 0x3f
   120002a84:	0040818c 	slli.w      	$t0, $t0, 0x0
   120002a88:	0114c180 	movgr2fcsr  	$zero, $t0
   120002a8c:	001501c4 	move        	$a0, $t2
   120002a90:	001501e5 	move        	$a1, $t3
   120002a94:	4c000020 	jirl        	$zero, $ra, 0
   120002a98:	4401ca20 	bnez        	$t5, 456(0x1c8)	# 120002c60 <__addtf3+0x730>
   120002a9c:	140000ec 	lu12i.w     	$t0, 7(0x7)
   120002aa0:	02c00571 	addi.d      	$t5, $a7, 1(0x1)
   120002aa4:	03bff994 	ori         	$t8, $t0, 0xffe
   120002aa8:	0014d230 	and         	$t4, $t5, $t8
   120002aac:	44058600 	bnez        	$t4, 1412(0x584)	# 120003030 <__addtf3+0xb00>
   120002ab0:	00153a51 	or          	$t5, $t6, $t2
   120002ab4:	44040d60 	bnez        	$a7, 1036(0x40c)	# 120002ec0 <__addtf3+0x990>
   120002ab8:	00153dac 	or          	$t0, $t1, $t3
   120002abc:	40067620 	beqz        	$t5, 1652(0x674)	# 120003130 <__addtf3+0xc00>
   120002ac0:	40049180 	beqz        	$t0, 1168(0x490)	# 120002f50 <__addtf3+0xa20>
   120002ac4:	0010bdd4 	add.d       	$t8, $t2, $t3
   120002ac8:	0010b64d 	add.d       	$t1, $t6, $t1
   120002acc:	0012ba8e 	sltu        	$t2, $t8, $t2
   120002ad0:	0010b9b2 	add.d       	$t6, $t1, $t2
   120002ad4:	00f3ce4c 	bstrpick.d  	$t0, $t6, 0x33, 0x33
   120002ad8:	43fe419f 	beqz        	$t0, -448(0x7ffe40)	# 120002918 <__addtf3+0x3e8>
   120002adc:	02bffc0c 	addi.w      	$t0, $zero, -1(0xfff)
   120002ae0:	16ffffec 	lu32i.d     	$t0, 524287(0x7ffff)
   120002ae4:	033ffd8c 	lu52i.d     	$t0, $t0, -1(0xfff)
   120002ae8:	0014b252 	and         	$t6, $t6, $t0
   120002aec:	03401e8f 	andi        	$t3, $t8, 0x7
   120002af0:	02800411 	addi.w      	$t5, $zero, 1(0x1)
   120002af4:	53fd3bff 	b           	-712(0xffffd38)	# 12000282c <__addtf3+0x2fc>
   120002af8:	14000204 	lu12i.w     	$a0, 16(0x10)
   120002afc:	40001520 	beqz        	$a5, 20(0x14)	# 120002b10 <__addtf3+0x5e0>
   120002b00:	02c0228c 	addi.d      	$t0, $t8, 8(0x8)
   120002b04:	0012d194 	sltu        	$t8, $t0, $t8
   120002b08:	0010d252 	add.d       	$t6, $t6, $t8
   120002b0c:	00150194 	move        	$t8, $t0
   120002b10:	0015000f 	move        	$t3, $zero
   120002b14:	1700000f 	lu32i.d     	$t3, -524288(0x80000)
   120002b18:	030001ef 	lu52i.d     	$t3, $t3, 0
   120002b1c:	0014be4f 	and         	$t3, $t6, $t3
   120002b20:	47fb721f 	bnez        	$t4, -1168(0x7ffb70)	# 120002690 <__addtf3+0x160>
   120002b24:	53fb77ff 	b           	-1164(0xffffb74)	# 120002698 <__addtf3+0x168>
   120002b28:	03403e8c 	andi        	$t0, $t8, 0xf
   120002b2c:	0280100d 	addi.w      	$t1, $zero, 4(0x4)
   120002b30:	14000204 	lu12i.w     	$a0, 16(0x10)
   120002b34:	5bffdd8d 	beq         	$t0, $t1, -36(0x3ffdc)	# 120002b10 <__addtf3+0x5e0>
   120002b38:	02c0128c 	addi.d      	$t0, $t8, 4(0x4)
   120002b3c:	0012d194 	sltu        	$t8, $t0, $t8
   120002b40:	0010d252 	add.d       	$t6, $t6, $t8
   120002b44:	00150194 	move        	$t8, $t0
   120002b48:	53ffcbff 	b           	-56(0xfffffc8)	# 120002b10 <__addtf3+0x5e0>
   120002b4c:	03400000 	andi        	$zero, $zero, 0x0
   120002b50:	14000204 	lu12i.w     	$a0, 16(0x10)
   120002b54:	43ffad3f 	beqz        	$a5, -84(0x7fffac)	# 120002b00 <__addtf3+0x5d0>
   120002b58:	53ffbbff 	b           	-72(0xfffffb8)	# 120002b10 <__addtf3+0x5e0>
   120002b5c:	03400000 	andi        	$zero, $zero, 0x0
   120002b60:	02bffc0d 	addi.w      	$t1, $zero, -1(0xfff)
   120002b64:	16ffffed 	lu32i.d     	$t1, 524287(0x7ffff)
   120002b68:	033ffdad 	lu52i.d     	$t1, $t1, -1(0xfff)
   120002b6c:	0011c56b 	sub.d       	$a7, $a7, $t5
   120002b70:	0014b612 	and         	$t6, $t4, $t1
   120002b74:	00150094 	move        	$t8, $a0
   120002b78:	53fa87ff 	b           	-1404(0xffffa84)	# 1200025fc <__addtf3+0xcc>
   120002b7c:	03400000 	andi        	$zero, $zero, 0x0
   120002b80:	0040822e 	slli.w      	$t2, $t5, 0x0
   120002b84:	00114410 	sub.w       	$t4, $zero, $t5
   120002b88:	0018b88f 	sll.d       	$t3, $a0, $t2
   120002b8c:	00194290 	srl.d       	$t4, $t8, $t4
   120002b90:	00153e10 	or          	$t4, $t4, $t3
   120002b94:	0018ba84 	sll.d       	$a0, $t8, $t2
   120002b98:	53fd43ff 	b           	-704(0xffffd40)	# 1200028d8 <__addtf3+0x3a8>
   120002b9c:	03400000 	andi        	$zero, $zero, 0x0
   120002ba0:	140000ec 	lu12i.w     	$t0, 7(0x7)
   120002ba4:	03bffd8c 	ori         	$t0, $t0, 0xfff
   120002ba8:	001501d4 	move        	$t8, $t2
   120002bac:	58021a2c 	beq         	$t5, $t0, 536(0x218)	# 120002dc4 <__addtf3+0x894>
   120002bb0:	03401e8f 	andi        	$t3, $t8, 0x7
   120002bb4:	53fc7bff 	b           	-904(0xffffc78)	# 12000282c <__addtf3+0x2fc>
   120002bb8:	47fe853f 	bnez        	$a5, -380(0x7ffe84)	# 120002a3c <__addtf3+0x50c>
   120002bbc:	03400000 	andi        	$zero, $zero, 0x0
   120002bc0:	14000a0c 	lu12i.w     	$t0, 80(0x50)
   120002bc4:	00153084 	or          	$a0, $a0, $t0
   120002bc8:	0040a08c 	slli.w      	$t0, $a0, 0x8
   120002bcc:	0015118c 	or          	$t0, $t0, $a0
   120002bd0:	15c1ffed 	lu12i.w     	$t1, -126977(0xe0fff)
   120002bd4:	00150010 	move        	$t4, $zero
   120002bd8:	140000f1 	lu12i.w     	$t5, 7(0x7)
   120002bdc:	0015000f 	move        	$t3, $zero
   120002be0:	03bffdad 	ori         	$t1, $t1, 0xfff
   120002be4:	03bffe31 	ori         	$t5, $t5, 0xfff
   120002be8:	00af020f 	bstrins.d   	$t3, $t4, 0x2f, 0x0
   120002bec:	0014b66d 	and         	$t1, $t7, $t1
   120002bf0:	00bec22f 	bstrins.d   	$t3, $t5, 0x3e, 0x30
   120002bf4:	001531ac 	or          	$t0, $t1, $t0
   120002bf8:	0015000e 	move        	$t2, $zero
   120002bfc:	00bffcaf 	bstrins.d   	$t3, $a1, 0x3f, 0x3f
   120002c00:	0040818c 	slli.w      	$t0, $t0, 0x0
   120002c04:	0114c180 	movgr2fcsr  	$zero, $t0
   120002c08:	001501c4 	move        	$a0, $t2
   120002c0c:	001501e5 	move        	$a1, $t3
   120002c10:	4c000020 	jirl        	$zero, $ra, 0
   120002c14:	0011bdd4 	sub.d       	$t8, $t2, $t3
   120002c18:	0012d1cc 	sltu        	$t0, $t2, $t8
   120002c1c:	0011b644 	sub.d       	$a0, $t6, $t1
   120002c20:	0011b084 	sub.d       	$a0, $a0, $t0
   120002c24:	00f3cc8c 	bstrpick.d  	$t0, $a0, 0x33, 0x33
   120002c28:	44043980 	bnez        	$t0, 1080(0x438)	# 120003060 <__addtf3+0xb30>
   120002c2c:	0015128c 	or          	$t0, $t8, $a0
   120002c30:	47fc859f 	bnez        	$t0, -892(0x7ffc84)	# 1200028b4 <__addtf3+0x384>
   120002c34:	034c0105 	andi        	$a1, $a4, 0x300
   120002c38:	02f400a5 	addi.d      	$a1, $a1, -768(0xd00)
   120002c3c:	00150010 	move        	$t4, $zero
   120002c40:	024004a5 	sltui       	$a1, $a1, 1(0x1)
   120002c44:	0015000e 	move        	$t2, $zero
   120002c48:	00ef0210 	bstrpick.d  	$t4, $t4, 0x2f, 0x0
   120002c4c:	00ce0231 	bstrpick.d  	$t5, $t5, 0xe, 0x0
   120002c50:	53fe17ff 	b           	-492(0xffffe14)	# 120002a64 <__addtf3+0x534>
   120002c54:	00150171 	move        	$t5, $a7
   120002c58:	03401e8f 	andi        	$t3, $t8, 0x7
   120002c5c:	53fbd3ff 	b           	-1072(0xffffbd0)	# 12000282c <__addtf3+0x2fc>
   120002c60:	40018160 	beqz        	$a7, 384(0x180)	# 120002de0 <__addtf3+0x8b0>
   120002c64:	140000f0 	lu12i.w     	$t4, 7(0x7)
   120002c68:	03bffe10 	ori         	$t4, $t4, 0xfff
   120002c6c:	58073150 	beq         	$a6, $t4, 1840(0x730)	# 12000339c <__addtf3+0xe6c>
   120002c70:	00150010 	move        	$t4, $zero
   120002c74:	17000010 	lu32i.d     	$t4, -524288(0x80000)
   120002c78:	03000210 	lu52i.d     	$t4, $t4, 0
   120002c7c:	0011440c 	sub.w       	$t0, $zero, $t5
   120002c80:	00154252 	or          	$t6, $t6, $t4
   120002c84:	00153a54 	or          	$t8, $t6, $t2
   120002c88:	0281d010 	addi.w      	$t4, $zero, 116(0x74)
   120002c8c:	0012d014 	sltu        	$t8, $zero, $t8
   120002c90:	60003a0c 	blt         	$t4, $t0, 56(0x38)	# 120002cc8 <__addtf3+0x798>
   120002c94:	0280fc10 	addi.w      	$t4, $zero, 63(0x3f)
   120002c98:	60063e0c 	blt         	$t4, $t0, 1596(0x63c)	# 1200032d4 <__addtf3+0xda4>
   120002c9c:	02810010 	addi.w      	$t4, $zero, 64(0x40)
   120002ca0:	00113210 	sub.w       	$t4, $t4, $t0
   120002ca4:	0040818c 	slli.w      	$t0, $t0, 0x0
   120002ca8:	001931d1 	srl.d       	$t5, $t2, $t0
   120002cac:	0018c254 	sll.d       	$t8, $t6, $t4
   120002cb0:	0018c1ce 	sll.d       	$t2, $t2, $t4
   120002cb4:	00154694 	or          	$t8, $t8, $t5
   120002cb8:	0012b80e 	sltu        	$t2, $zero, $t2
   120002cbc:	0019324c 	srl.d       	$t0, $t6, $t0
   120002cc0:	00153a94 	or          	$t8, $t8, $t2
   120002cc4:	0010b1ad 	add.d       	$t1, $t1, $t0
   120002cc8:	0010be94 	add.d       	$t8, $t8, $t3
   120002ccc:	0012be90 	sltu        	$t4, $t8, $t3
   120002cd0:	0010b612 	add.d       	$t6, $t4, $t1
   120002cd4:	0015014b 	move        	$a7, $a6
   120002cd8:	53fb13ff 	b           	-1264(0xffffb10)	# 1200027e8 <__addtf3+0x2b8>
   120002cdc:	03400000 	andi        	$zero, $zero, 0x0
   120002ce0:	140000f0 	lu12i.w     	$t4, 7(0x7)
   120002ce4:	03bffe10 	ori         	$t4, $t4, 0xfff
   120002ce8:	58022d50 	beq         	$a6, $t4, 556(0x22c)	# 120002f14 <__addtf3+0x9e4>
   120002cec:	00150010 	move        	$t4, $zero
   120002cf0:	17000010 	lu32i.d     	$t4, -524288(0x80000)
   120002cf4:	03000210 	lu52i.d     	$t4, $t4, 0
   120002cf8:	0011440c 	sub.w       	$t0, $zero, $t5
   120002cfc:	00154252 	or          	$t6, $t6, $t4
   120002d00:	00153a54 	or          	$t8, $t6, $t2
   120002d04:	0281d010 	addi.w      	$t4, $zero, 116(0x74)
   120002d08:	0012d014 	sltu        	$t8, $zero, $t8
   120002d0c:	60003a0c 	blt         	$t4, $t0, 56(0x38)	# 120002d44 <__addtf3+0x814>
   120002d10:	0280fc10 	addi.w      	$t4, $zero, 63(0x3f)
   120002d14:	6003ee0c 	blt         	$t4, $t0, 1004(0x3ec)	# 120003100 <__addtf3+0xbd0>
   120002d18:	02810010 	addi.w      	$t4, $zero, 64(0x40)
   120002d1c:	00113210 	sub.w       	$t4, $t4, $t0
   120002d20:	0040818c 	slli.w      	$t0, $t0, 0x0
   120002d24:	001931d1 	srl.d       	$t5, $t2, $t0
   120002d28:	0018c254 	sll.d       	$t8, $t6, $t4
   120002d2c:	0018c1ce 	sll.d       	$t2, $t2, $t4
   120002d30:	00154694 	or          	$t8, $t8, $t5
   120002d34:	0012b80e 	sltu        	$t2, $zero, $t2
   120002d38:	0019324c 	srl.d       	$t0, $t6, $t0
   120002d3c:	00153a94 	or          	$t8, $t8, $t2
   120002d40:	0011b1ad 	sub.d       	$t1, $t1, $t0
   120002d44:	0011d1f4 	sub.d       	$t8, $t3, $t8
   120002d48:	0012d1f0 	sltu        	$t4, $t3, $t8
   120002d4c:	001500e5 	move        	$a1, $a3
   120002d50:	0011c1b2 	sub.d       	$t6, $t1, $t4
   120002d54:	0015014b 	move        	$a7, $a6
   120002d58:	001500e9 	move        	$a5, $a3
   120002d5c:	53f89bff 	b           	-1896(0xffff898)	# 1200025f4 <__addtf3+0xc4>
   120002d60:	00113c0c 	sub.w       	$t0, $zero, $t3
   120002d64:	0018b20c 	sll.d       	$t0, $t4, $t0
   120002d68:	0015308c 	or          	$t0, $a0, $t0
   120002d6c:	03c101ef 	xori        	$t3, $t3, 0x40
   120002d70:	00133d8c 	maskeqz     	$t0, $t0, $t3
   120002d74:	0013bc8f 	masknez     	$t3, $a0, $t3
   120002d78:	00153d84 	or          	$a0, $t0, $t3
   120002d7c:	02bf0631 	addi.w      	$t5, $t5, -63(0xfc1)
   120002d80:	0019460c 	srl.d       	$t0, $t4, $t5
   120002d84:	0012900f 	sltu        	$t3, $zero, $a0
   120002d88:	001531ec 	or          	$t0, $t3, $t0
   120002d8c:	00150194 	move        	$t8, $t0
   120002d90:	00150012 	move        	$t6, $zero
   120002d94:	53f873ff 	b           	-1936(0xffff870)	# 120002604 <__addtf3+0xd4>
   120002d98:	00113010 	sub.w       	$t4, $zero, $t0
   120002d9c:	0018c1b0 	sll.d       	$t4, $t1, $t4
   120002da0:	03c10191 	xori        	$t5, $t0, 0x40
   120002da4:	001541f0 	or          	$t4, $t3, $t4
   120002da8:	00134610 	maskeqz     	$t4, $t4, $t5
   120002dac:	0013c5ef 	masknez     	$t3, $t3, $t5
   120002db0:	00153e0f 	or          	$t3, $t4, $t3
   120002db4:	001931ac 	srl.d       	$t0, $t1, $t0
   120002db8:	0012bc14 	sltu        	$t8, $zero, $t3
   120002dbc:	00153294 	or          	$t8, $t8, $t0
   120002dc0:	53f82bff 	b           	-2008(0xffff828)	# 1200025e8 <__addtf3+0xb8>
   120002dc4:	00153a4c 	or          	$t0, $t6, $t2
   120002dc8:	40032980 	beqz        	$t0, 808(0x328)	# 1200030f0 <__addtf3+0xbc0>
   120002dcc:	16800010 	lu32i.d     	$t4, 262144(0x40000)
   120002dd0:	0014c24c 	and         	$t0, $t6, $t4
   120002dd4:	0240058c 	sltui       	$t0, $t0, 1(0x1)
   120002dd8:	0041518c 	slli.d      	$t0, $t0, 0x14
   120002ddc:	53fbdfff 	b           	-1060(0xffffbdc)	# 1200029b8 <__addtf3+0x488>
   120002de0:	00153a50 	or          	$t4, $t6, $t2
   120002de4:	40036600 	beqz        	$t4, 868(0x364)	# 120003148 <__addtf3+0xc18>
   120002de8:	02bffc10 	addi.w      	$t4, $zero, -1(0xfff)
   120002dec:	58066230 	beq         	$t5, $t4, 1632(0x660)	# 12000344c <__addtf3+0xf1c>
   120002df0:	140000f0 	lu12i.w     	$t4, 7(0x7)
   120002df4:	03bffe10 	ori         	$t4, $t4, 0xfff
   120002df8:	0014440c 	nor         	$t0, $zero, $t5
   120002dfc:	5ffe8950 	bne         	$a6, $t4, -376(0x3fe88)	# 120002c84 <__addtf3+0x754>
   120002e00:	00153dac 	or          	$t0, $t1, $t3
   120002e04:	43fdcd9f 	beqz        	$t0, -564(0x7ffdcc)	# 120002bd0 <__addtf3+0x6a0>
   120002e08:	0041f5ac 	slli.d      	$t0, $t1, 0x3d
   120002e0c:	1680000b 	lu32i.d     	$a7, 262144(0x40000)
   120002e10:	00fc00ce 	bstrpick.d  	$t2, $a2, 0x3c, 0x0
   120002e14:	0014adab 	and         	$a7, $t1, $a7
   120002e18:	001531ce 	or          	$t2, $t2, $t0
   120002e1c:	1420200c 	lu12i.w     	$t0, 65792(0x10100)
   120002e20:	00450db0 	srli.d      	$t4, $t1, 0x3
   120002e24:	0013ad8c 	masknez     	$t0, $t0, $a7
   120002e28:	53fbabff 	b           	-1112(0xffffba8)	# 1200029d0 <__addtf3+0x4a0>
   120002e2c:	03400000 	andi        	$zero, $zero, 0x0
   120002e30:	00113010 	sub.w       	$t4, $zero, $t0
   120002e34:	0018c1b0 	sll.d       	$t4, $t1, $t4
   120002e38:	03c10191 	xori        	$t5, $t0, 0x40
   120002e3c:	001541f0 	or          	$t4, $t3, $t4
   120002e40:	00134610 	maskeqz     	$t4, $t4, $t5
   120002e44:	0013c5ef 	masknez     	$t3, $t3, $t5
   120002e48:	00153e0f 	or          	$t3, $t4, $t3
   120002e4c:	001931ac 	srl.d       	$t0, $t1, $t0
   120002e50:	0012bc14 	sltu        	$t8, $zero, $t3
   120002e54:	00153294 	or          	$t8, $t8, $t0
   120002e58:	53f987ff 	b           	-1660(0xffff984)	# 1200027dc <__addtf3+0x2ac>
   120002e5c:	03400000 	andi        	$zero, $zero, 0x0
   120002e60:	0010bdd4 	add.d       	$t8, $t2, $t3
   120002e64:	0010b64d 	add.d       	$t1, $t6, $t1
   120002e68:	0012ba8e 	sltu        	$t2, $t8, $t2
   120002e6c:	0010b9b2 	add.d       	$t6, $t1, $t2
   120002e70:	00f3ce4c 	bstrpick.d  	$t0, $t6, 0x33, 0x33
   120002e74:	43fd3d9f 	beqz        	$t0, -708(0x7ffd3c)	# 120002bb0 <__addtf3+0x680>
   120002e78:	0015022b 	move        	$a7, $t5
   120002e7c:	53f977ff 	b           	-1676(0xffff974)	# 1200027f0 <__addtf3+0x2c0>
   120002e80:	14000a0c 	lu12i.w     	$t0, 80(0x50)
   120002e84:	00153084 	or          	$a0, $a0, $t0
   120002e88:	0040a08c 	slli.w      	$t0, $a0, 0x8
   120002e8c:	0015118c 	or          	$t0, $t0, $a0
   120002e90:	43fbbd3f 	beqz        	$a5, -1092(0x7ffbbc)	# 120002a4c <__addtf3+0x51c>
   120002e94:	53fd3fff 	b           	-708(0xffffd3c)	# 120002bd0 <__addtf3+0x6a0>
   120002e98:	140000ec 	lu12i.w     	$t0, 7(0x7)
   120002e9c:	03bffd8c 	ori         	$t0, $t0, 0xfff
   120002ea0:	5804a54c 	beq         	$a6, $t0, 1188(0x4a4)	# 120003344 <__addtf3+0xe14>
   120002ea4:	001500e5 	move        	$a1, $a3
   120002ea8:	001501b2 	move        	$t6, $t1
   120002eac:	001501f4 	move        	$t8, $t3
   120002eb0:	0015014b 	move        	$a7, $a6
   120002eb4:	001500e9 	move        	$a5, $a3
   120002eb8:	53f747ff 	b           	-2236(0xffff744)	# 1200025fc <__addtf3+0xcc>
   120002ebc:	03400000 	andi        	$zero, $zero, 0x0
   120002ec0:	03bffd8c 	ori         	$t0, $t0, 0xfff
   120002ec4:	5804b56c 	beq         	$a7, $t0, 1204(0x4b4)	# 120003378 <__addtf3+0xe48>
   120002ec8:	5805714c 	beq         	$a6, $t0, 1392(0x570)	# 120003438 <__addtf3+0xf08>
   120002ecc:	4003aa20 	beqz        	$t5, 936(0x3a8)	# 120003274 <__addtf3+0xd44>
   120002ed0:	0015000c 	move        	$t0, $zero
   120002ed4:	00153dad 	or          	$t1, $t1, $t3
   120002ed8:	0041f64e 	slli.d      	$t2, $t6, 0x3d
   120002edc:	44050da0 	bnez        	$t1, 1292(0x50c)	# 1200033e8 <__addtf3+0xeb8>
   120002ee0:	00fc0084 	bstrpick.d  	$a0, $a0, 0x3c, 0x0
   120002ee4:	0015388e 	or          	$t2, $a0, $t2
   120002ee8:	00450e50 	srli.d      	$t4, $t6, 0x3
   120002eec:	53fae7ff 	b           	-1308(0xffffae4)	# 1200029d0 <__addtf3+0x4a0>
   120002ef0:	4403c980 	bnez        	$t0, 968(0x3c8)	# 1200032b8 <__addtf3+0xd88>
   120002ef4:	034c0105 	andi        	$a1, $a4, 0x300
   120002ef8:	02f400a5 	addi.d      	$a1, $a1, -768(0xd00)
   120002efc:	00150191 	move        	$t5, $t0
   120002f00:	024004a5 	sltui       	$a1, $a1, 1(0x1)
   120002f04:	0015000e 	move        	$t2, $zero
   120002f08:	00ef0210 	bstrpick.d  	$t4, $t4, 0x2f, 0x0
   120002f0c:	00ce0231 	bstrpick.d  	$t5, $t5, 0xe, 0x0
   120002f10:	53fb57ff 	b           	-1196(0xffffb54)	# 120002a64 <__addtf3+0x534>
   120002f14:	00153dac 	or          	$t0, $t1, $t3
   120002f18:	40022980 	beqz        	$t0, 552(0x228)	# 120003140 <__addtf3+0xc10>
   120002f1c:	00f2c9ac 	bstrpick.d  	$t0, $t1, 0x32, 0x32
   120002f20:	0240058c 	sltui       	$t0, $t0, 1(0x1)
   120002f24:	00df018c 	bstrpick.d  	$t0, $t0, 0x1f, 0x0
   120002f28:	0011b00c 	sub.d       	$t0, $zero, $t0
   120002f2c:	00fc00c6 	bstrpick.d  	$a2, $a2, 0x3c, 0x0
   120002f30:	0041f5ae 	slli.d      	$t2, $t1, 0x3d
   120002f34:	53fa37ff 	b           	-1484(0xffffa34)	# 120002968 <__addtf3+0x438>
   120002f38:	0015422c 	or          	$t0, $t5, $t4
   120002f3c:	4004d980 	beqz        	$t0, 1240(0x4d8)	# 120003414 <__addtf3+0xee4>
   120002f40:	03401e2c 	andi        	$t0, $t5, 0x7
   120002f44:	00150212 	move        	$t6, $t4
   120002f48:	0015022e 	move        	$t2, $t5
   120002f4c:	03400000 	andi        	$zero, $zero, 0x0
   120002f50:	001501d4 	move        	$t8, $t2
   120002f54:	53f6c7ff 	b           	-2364(0xffff6c4)	# 120002618 <__addtf3+0xe8>
   120002f58:	00153a4c 	or          	$t0, $t6, $t2
   120002f5c:	43fc759f 	beqz        	$t0, -908(0x7ffc74)	# 120002bd0 <__addtf3+0x6a0>
   120002f60:	0041f64d 	slli.d      	$t1, $t6, 0x3d
   120002f64:	00f2ca4c 	bstrpick.d  	$t0, $t6, 0x32, 0x32
   120002f68:	00fc008e 	bstrpick.d  	$t2, $a0, 0x3c, 0x0
   120002f6c:	02fffd8c 	addi.d      	$t0, $t0, -1(0xfff)
   120002f70:	001535ce 	or          	$t2, $t2, $t1
   120002f74:	1420200d 	lu12i.w     	$t1, 65792(0x10100)
   120002f78:	00450e50 	srli.d      	$t4, $t6, 0x3
   120002f7c:	0014b58c 	and         	$t0, $t0, $t1
   120002f80:	53fa53ff 	b           	-1456(0xffffa50)	# 1200029d0 <__addtf3+0x4a0>
   120002f84:	027fe1ce 	sltui       	$t2, $t2, -8(0xff8)
   120002f88:	03c005ce 	xori        	$t2, $t2, 0x1
   120002f8c:	0010b9ae 	add.d       	$t2, $t1, $t2
   120002f90:	001325ce 	maskeqz     	$t2, $t2, $a5
   120002f94:	0013a5ad 	masknez     	$t1, $t1, $a5
   120002f98:	14000204 	lu12i.w     	$a0, 16(0x10)
   120002f9c:	001535cd 	or          	$t1, $t2, $t1
   120002fa0:	53f6afff 	b           	-2388(0xffff6ac)	# 12000264c <__addtf3+0x11c>
   120002fa4:	027fe1ce 	sltui       	$t2, $t2, -8(0xff8)
   120002fa8:	03c005ce 	xori        	$t2, $t2, 0x1
   120002fac:	0010b9ae 	add.d       	$t2, $t1, $t2
   120002fb0:	0013a5ce 	masknez     	$t2, $t2, $a5
   120002fb4:	001325ad 	maskeqz     	$t1, $t1, $a5
   120002fb8:	14000204 	lu12i.w     	$a0, 16(0x10)
   120002fbc:	001535cd 	or          	$t1, $t2, $t1
   120002fc0:	53f68fff 	b           	-2420(0xffff68c)	# 12000264c <__addtf3+0x11c>
   120002fc4:	027ff1cf 	sltui       	$t3, $t2, -4(0xffc)
   120002fc8:	03c005ef 	xori        	$t3, $t3, 0x1
   120002fcc:	03403dce 	andi        	$t2, $t2, 0xf
   120002fd0:	0010bdaf 	add.d       	$t3, $t1, $t3
   120002fd4:	03c011ce 	xori        	$t2, $t2, 0x4
   120002fd8:	001339ef 	maskeqz     	$t3, $t3, $t2
   120002fdc:	0013b9ad 	masknez     	$t1, $t1, $t2
   120002fe0:	001535ed 	or          	$t1, $t3, $t1
   120002fe4:	53f66bff 	b           	-2456(0xffff668)	# 12000264c <__addtf3+0x11c>
   120002fe8:	034c010c 	andi        	$t0, $a4, 0x300
   120002fec:	0015018e 	move        	$t2, $t0
   120002ff0:	4000c9c0 	beqz        	$t2, 200(0xc8)	# 1200030b8 <__addtf3+0xb88>
   120002ff4:	0288000f 	addi.w      	$t3, $zero, 512(0x200)
   120002ff8:	5803d1cf 	beq         	$t2, $t3, 976(0x3d0)	# 1200033c8 <__addtf3+0xe98>
   120002ffc:	028c000f 	addi.w      	$t3, $zero, 768(0x300)
   120003000:	580465cf 	beq         	$t2, $t3, 1124(0x464)	# 120003464 <__addtf3+0xf34>
   120003004:	0288000d 	addi.w      	$t1, $zero, 512(0x200)
   120003008:	14000a04 	lu12i.w     	$a0, 80(0x50)
   12000300c:	5ffa1dcd 	bne         	$t2, $t1, -1508(0x3fa1c)	# 120002a28 <__addtf3+0x4f8>
   120003010:	140000f1 	lu12i.w     	$t5, 7(0x7)
   120003014:	02bffc12 	addi.w      	$t6, $zero, -1(0xfff)
   120003018:	02bffc14 	addi.w      	$t8, $zero, -1(0xfff)
   12000301c:	03bffa31 	ori         	$t5, $t5, 0xffe
   120003020:	00150010 	move        	$t4, $zero
   120003024:	14000a04 	lu12i.w     	$a0, 80(0x50)
   120003028:	53fb2fff 	b           	-1236(0xffffb2c)	# 120002b54 <__addtf3+0x624>
   12000302c:	03400000 	andi        	$zero, $zero, 0x0
   120003030:	03bffd8c 	ori         	$t0, $t0, 0xfff
   120003034:	58015a2c 	beq         	$t5, $t0, 344(0x158)	# 12000318c <__addtf3+0xc5c>
   120003038:	0010bdcf 	add.d       	$t3, $t2, $t3
   12000303c:	0010b64d 	add.d       	$t1, $t6, $t1
   120003040:	0012b9f2 	sltu        	$t6, $t3, $t2
   120003044:	0010c9ad 	add.d       	$t1, $t1, $t6
   120003048:	004505ef 	srli.d      	$t3, $t3, 0x1
   12000304c:	0041fdb4 	slli.d      	$t8, $t1, 0x3f
   120003050:	00153e94 	or          	$t8, $t8, $t3
   120003054:	004505b2 	srli.d      	$t6, $t1, 0x1
   120003058:	03401e8f 	andi        	$t3, $t8, 0x7
   12000305c:	53f7d3ff 	b           	-2096(0xffff7d0)	# 12000282c <__addtf3+0x2fc>
   120003060:	0011b9f4 	sub.d       	$t8, $t3, $t2
   120003064:	0011c9ad 	sub.d       	$t1, $t1, $t6
   120003068:	0012d1ef 	sltu        	$t3, $t3, $t8
   12000306c:	001500e5 	move        	$a1, $a3
   120003070:	0011bda4 	sub.d       	$a0, $t1, $t3
   120003074:	001500e9 	move        	$a5, $a3
   120003078:	53f83fff 	b           	-1988(0xffff83c)	# 1200028b4 <__addtf3+0x384>
   12000307c:	03400000 	andi        	$zero, $zero, 0x0
   120003080:	03bffe94 	ori         	$t8, $t8, 0xfff
   120003084:	58013d74 	beq         	$a7, $t8, 316(0x13c)	# 1200031c0 <__addtf3+0xc90>
   120003088:	58027954 	beq         	$a6, $t8, 632(0x278)	# 120003300 <__addtf3+0xdd0>
   12000308c:	40020620 	beqz        	$t5, 516(0x204)	# 120003290 <__addtf3+0xd60>
   120003090:	0015000f 	move        	$t3, $zero
   120003094:	0040a1ed 	slli.w      	$t1, $t3, 0x8
   120003098:	00153daf 	or          	$t3, $t1, $t3
   12000309c:	0041f64e 	slli.d      	$t2, $t6, 0x3d
   1200030a0:	44016980 	bnez        	$t0, 360(0x168)	# 120003208 <__addtf3+0xcd8>
   1200030a4:	00fc0084 	bstrpick.d  	$a0, $a0, 0x3c, 0x0
   1200030a8:	0015388e 	or          	$t2, $a0, $t2
   1200030ac:	00450e50 	srli.d      	$t4, $t6, 0x3
   1200030b0:	001501ec 	move        	$t0, $t3
   1200030b4:	53f91fff 	b           	-1764(0xffff91c)	# 1200029d0 <__addtf3+0x4a0>
   1200030b8:	140a0a0c 	lu12i.w     	$t0, 20560(0x5050)
   1200030bc:	53fb17ff 	b           	-1260(0xffffb14)	# 120002bd0 <__addtf3+0x6a0>
   1200030c0:	00153a4c 	or          	$t0, $t6, $t2
   1200030c4:	43fb0d9f 	beqz        	$t0, -1268(0x7ffb0c)	# 120002bd0 <__addtf3+0x6a0>
   1200030c8:	00f2ca4c 	bstrpick.d  	$t0, $t6, 0x32, 0x32
   1200030cc:	0041f64e 	slli.d      	$t2, $t6, 0x3d
   1200030d0:	00fc0084 	bstrpick.d  	$a0, $a0, 0x3c, 0x0
   1200030d4:	02fffd8c 	addi.d      	$t0, $t0, -1(0xfff)
   1200030d8:	1420200d 	lu12i.w     	$t1, 65792(0x10100)
   1200030dc:	001511ce 	or          	$t2, $t2, $a0
   1200030e0:	00450e50 	srli.d      	$t4, $t6, 0x3
   1200030e4:	0014b58c 	and         	$t0, $t0, $t1
   1200030e8:	53f8ebff 	b           	-1816(0xffff8e8)	# 1200029d0 <__addtf3+0x4a0>
   1200030ec:	03400000 	andi        	$zero, $zero, 0x0
   1200030f0:	00150012 	move        	$t6, $zero
   1200030f4:	0015000e 	move        	$t2, $zero
   1200030f8:	0015000c 	move        	$t0, $zero
   1200030fc:	53f8bfff 	b           	-1860(0xffff8bc)	# 1200029b8 <__addtf3+0x488>
   120003100:	00113010 	sub.w       	$t4, $zero, $t0
   120003104:	0018c250 	sll.d       	$t4, $t6, $t4
   120003108:	03c10191 	xori        	$t5, $t0, 0x40
   12000310c:	001541d0 	or          	$t4, $t2, $t4
   120003110:	00134610 	maskeqz     	$t4, $t4, $t5
   120003114:	0013c5ce 	masknez     	$t2, $t2, $t5
   120003118:	00153a0e 	or          	$t2, $t4, $t2
   12000311c:	0019324c 	srl.d       	$t0, $t6, $t0
   120003120:	0012b814 	sltu        	$t8, $zero, $t2
   120003124:	00153294 	or          	$t8, $t8, $t0
   120003128:	53fc1fff 	b           	-996(0xffffc1c)	# 120002d44 <__addtf3+0x814>
   12000312c:	03400000 	andi        	$zero, $zero, 0x0
   120003130:	001501b2 	move        	$t6, $t1
   120003134:	001501f4 	move        	$t8, $t3
   120003138:	53f4cfff 	b           	-2868(0xffff4cc)	# 120002604 <__addtf3+0xd4>
   12000313c:	03400000 	andi        	$zero, $zero, 0x0
   120003140:	001500e5 	move        	$a1, $a3
   120003144:	53fa8fff 	b           	-1396(0xffffa8c)	# 120002bd0 <__addtf3+0x6a0>
   120003148:	140000ec 	lu12i.w     	$t0, 7(0x7)
   12000314c:	03bffd8c 	ori         	$t0, $t0, 0xfff
   120003150:	001501b2 	move        	$t6, $t1
   120003154:	001501f4 	move        	$t8, $t3
   120003158:	0015014b 	move        	$a7, $a6
   12000315c:	5ff4a14c 	bne         	$a6, $t0, -2912(0x3f4a0)	# 1200025fc <__addtf3+0xcc>
   120003160:	00153dae 	or          	$t2, $t1, $t3
   120003164:	0015000c 	move        	$t0, $zero
   120003168:	00150012 	move        	$t6, $zero
   12000316c:	43f84ddf 	beqz        	$t2, -1972(0x7ff84c)	# 1200029b8 <__addtf3+0x488>
   120003170:	1680000c 	lu32i.d     	$t0, 262144(0x40000)
   120003174:	0014b1ac 	and         	$t0, $t1, $t0
   120003178:	001501b2 	move        	$t6, $t1
   12000317c:	1400200d 	lu12i.w     	$t1, 256(0x100)
   120003180:	001501ee 	move        	$t2, $t3
   120003184:	0013b1ac 	masknez     	$t0, $t1, $t0
   120003188:	53f833ff 	b           	-2000(0xffff830)	# 1200029b8 <__addtf3+0x488>
   12000318c:	034c010c 	andi        	$t0, $a4, 0x300
   120003190:	0015018e 	move        	$t2, $t0
   120003194:	43ff25df 	beqz        	$t2, -220(0x7fff24)	# 1200030b8 <__addtf3+0xb88>
   120003198:	0288000d 	addi.w      	$t1, $zero, 512(0x200)
   12000319c:	5802edcd 	beq         	$t2, $t1, 748(0x2ec)	# 120003488 <__addtf3+0xf58>
   1200031a0:	028c000d 	addi.w      	$t1, $zero, 768(0x300)
   1200031a4:	5ffe61cd 	bne         	$t2, $t1, -416(0x3fe60)	# 120003004 <__addtf3+0xad4>
   1200031a8:	4402d4a0 	bnez        	$a1, 724(0x2d4)	# 12000347c <__addtf3+0xf4c>
   1200031ac:	00150291 	move        	$t5, $t8
   1200031b0:	02bffc12 	addi.w      	$t6, $zero, -1(0xfff)
   1200031b4:	02bffc14 	addi.w      	$t8, $zero, -1(0xfff)
   1200031b8:	14000a04 	lu12i.w     	$a0, 80(0x50)
   1200031bc:	53f4e3ff 	b           	-2848(0xffff4e0)	# 12000269c <__addtf3+0x16c>
   1200031c0:	4000ce20 	beqz        	$t5, 204(0xcc)	# 12000328c <__addtf3+0xd5c>
   1200031c4:	16800010 	lu32i.d     	$t4, 262144(0x40000)
   1200031c8:	0014c24f 	and         	$t3, $t6, $t4
   1200031cc:	024005ef 	sltui       	$t3, $t3, 1(0x1)
   1200031d0:	004151ef 	slli.d      	$t3, $t3, 0x14
   1200031d4:	5ffec14b 	bne         	$a6, $a7, -320(0x3fec0)	# 120003094 <__addtf3+0xb64>
   1200031d8:	40015180 	beqz        	$t0, 336(0x150)	# 120003328 <__addtf3+0xdf8>
   1200031dc:	0015000c 	move        	$t0, $zero
   1200031e0:	1680000c 	lu32i.d     	$t0, 262144(0x40000)
   1200031e4:	0014b1ac 	and         	$t0, $t1, $t0
   1200031e8:	1400200e 	lu12i.w     	$t2, 256(0x100)
   1200031ec:	001331ef 	maskeqz     	$t3, $t3, $t0
   1200031f0:	0013b1cc 	masknez     	$t0, $t2, $t0
   1200031f4:	001531ef 	or          	$t3, $t3, $t0
   1200031f8:	4000a220 	beqz        	$t5, 160(0xa0)	# 120003298 <__addtf3+0xd68>
   1200031fc:	0040a1ec 	slli.w      	$t0, $t3, 0x8
   120003200:	00153d8f 	or          	$t3, $t0, $t3
   120003204:	0041f64e 	slli.d      	$t2, $t6, 0x3d
   120003208:	00fc0084 	bstrpick.d  	$a0, $a0, 0x3c, 0x0
   12000320c:	0015388e 	or          	$t2, $a0, $t2
   120003210:	02bfe010 	addi.w      	$t4, $zero, -8(0xff8)
   120003214:	0045f5cc 	srli.d      	$t0, $t2, 0x3d
   120003218:	0014c250 	and         	$t4, $t6, $t4
   12000321c:	00153210 	or          	$t4, $t4, $t0
   120003220:	0041f60c 	slli.d      	$t0, $t4, 0x3d
   120003224:	00fc01ce 	bstrpick.d  	$t2, $t2, 0x3c, 0x0
   120003228:	0015398e 	or          	$t2, $t0, $t2
   12000322c:	00450e10 	srli.d      	$t4, $t4, 0x3
   120003230:	001501ec 	move        	$t0, $t3
   120003234:	53f79fff 	b           	-2148(0xffff79c)	# 1200029d0 <__addtf3+0x4a0>
   120003238:	5c003d4b 	bne         	$a6, $a7, 60(0x3c)	# 120003274 <__addtf3+0xd44>
   12000323c:	00153daf 	or          	$t3, $t1, $t3
   120003240:	400035e0 	beqz        	$t3, 52(0x34)	# 120003274 <__addtf3+0xd44>
   120003244:	0015000c 	move        	$t0, $zero
   120003248:	0015000e 	move        	$t2, $zero
   12000324c:	0040a18f 	slli.w      	$t3, $t0, 0x8
   120003250:	1680000e 	lu32i.d     	$t2, 262144(0x40000)
   120003254:	0014b9ae 	and         	$t2, $t1, $t2
   120003258:	00153d8c 	or          	$t0, $t0, $t3
   12000325c:	1420200f 	lu12i.w     	$t3, 65792(0x10100)
   120003260:	0013398c 	maskeqz     	$t0, $t0, $t2
   120003264:	0013b9ee 	masknez     	$t2, $t3, $t2
   120003268:	0015398c 	or          	$t0, $t0, $t2
   12000326c:	44017a20 	bnez        	$t5, 376(0x178)	# 1200033e4 <__addtf3+0xeb4>
   120003270:	00150191 	move        	$t5, $t0
   120003274:	0041f5ae 	slli.d      	$t2, $t1, 0x3d
   120003278:	00fc00c6 	bstrpick.d  	$a2, $a2, 0x3c, 0x0
   12000327c:	001519ce 	or          	$t2, $t2, $a2
   120003280:	00450db0 	srli.d      	$t4, $t1, 0x3
   120003284:	0015022c 	move        	$t0, $t5
   120003288:	53f74bff 	b           	-2232(0xffff748)	# 1200029d0 <__addtf3+0x4a0>
   12000328c:	5800754b 	beq         	$a6, $a7, 116(0x74)	# 120003300 <__addtf3+0xdd0>
   120003290:	40009d80 	beqz        	$t0, 156(0x9c)	# 12000332c <__addtf3+0xdfc>
   120003294:	0015000f 	move        	$t3, $zero
   120003298:	0040a1ec 	slli.w      	$t0, $t3, 0x8
   12000329c:	00fc00c6 	bstrpick.d  	$a2, $a2, 0x3c, 0x0
   1200032a0:	0041f5ae 	slli.d      	$t2, $t1, 0x3d
   1200032a4:	00153d8c 	or          	$t0, $t0, $t3
   1200032a8:	001538ce 	or          	$t2, $a2, $t2
   1200032ac:	00450db0 	srli.d      	$t4, $t1, 0x3
   1200032b0:	001500e5 	move        	$a1, $a3
   1200032b4:	53f71fff 	b           	-2276(0xffff71c)	# 1200029d0 <__addtf3+0x4a0>
   1200032b8:	001501ee 	move        	$t2, $t3
   1200032bc:	001500e5 	move        	$a1, $a3
   1200032c0:	0015000c 	move        	$t0, $zero
   1200032c4:	001501b2 	move        	$t6, $t1
   1200032c8:	001500e9 	move        	$a5, $a3
   1200032cc:	001501d4 	move        	$t8, $t2
   1200032d0:	53f34bff 	b           	-3256(0xffff348)	# 120002618 <__addtf3+0xe8>
   1200032d4:	00113010 	sub.w       	$t4, $zero, $t0
   1200032d8:	0018c250 	sll.d       	$t4, $t6, $t4
   1200032dc:	03c10191 	xori        	$t5, $t0, 0x40
   1200032e0:	001541d0 	or          	$t4, $t2, $t4
   1200032e4:	00134610 	maskeqz     	$t4, $t4, $t5
   1200032e8:	0013c5ce 	masknez     	$t2, $t2, $t5
   1200032ec:	00153a0e 	or          	$t2, $t4, $t2
   1200032f0:	0019324c 	srl.d       	$t0, $t6, $t0
   1200032f4:	0012b814 	sltu        	$t8, $zero, $t2
   1200032f8:	00153294 	or          	$t8, $t8, $t0
   1200032fc:	53f9cfff 	b           	-1588(0xffff9cc)	# 120002cc8 <__addtf3+0x798>
   120003300:	0015000f 	move        	$t3, $zero
   120003304:	53fed7ff 	b           	-300(0xffffed4)	# 1200031d8 <__addtf3+0xca8>
   120003308:	0011b9f4 	sub.d       	$t8, $t3, $t2
   12000330c:	0011c9ad 	sub.d       	$t1, $t1, $t6
   120003310:	0012d1ef 	sltu        	$t3, $t3, $t8
   120003314:	001500e5 	move        	$a1, $a3
   120003318:	0011bdb2 	sub.d       	$t6, $t1, $t3
   12000331c:	0015014b 	move        	$a7, $a6
   120003320:	001500e9 	move        	$a5, $a3
   120003324:	53f2d3ff 	b           	-3376(0xffff2d0)	# 1200025f4 <__addtf3+0xc4>
   120003328:	47fd6e3f 	bnez        	$t5, -660(0x7ffd6c)	# 120003094 <__addtf3+0xb64>
   12000332c:	02bffc0e 	addi.w      	$t2, $zero, -1(0xfff)
   120003330:	001501d0 	move        	$t4, $t2
   120003334:	00150005 	move        	$a1, $zero
   120003338:	161ffff0 	lu32i.d     	$t4, 65535(0xffff)
   12000333c:	1420200c 	lu12i.w     	$t0, 65792(0x10100)
   120003340:	53f69bff 	b           	-2408(0xffff698)	# 1200029d8 <__addtf3+0x4a8>
   120003344:	00153dae 	or          	$t2, $t1, $t3
   120003348:	001500e5 	move        	$a1, $a3
   12000334c:	00150012 	move        	$t6, $zero
   120003350:	0015000c 	move        	$t0, $zero
   120003354:	43f665df 	beqz        	$t2, -2460(0x7ff664)	# 1200029b8 <__addtf3+0x488>
   120003358:	00f2c9ac 	bstrpick.d  	$t0, $t1, 0x32, 0x32
   12000335c:	1400200e 	lu12i.w     	$t2, 256(0x100)
   120003360:	00133210 	maskeqz     	$t4, $t4, $t0
   120003364:	0013b1cc 	masknez     	$t0, $t2, $t0
   120003368:	001501b2 	move        	$t6, $t1
   12000336c:	001501ee 	move        	$t2, $t3
   120003370:	0015320c 	or          	$t0, $t4, $t0
   120003374:	53f647ff 	b           	-2492(0xffff644)	# 1200029b8 <__addtf3+0x488>
   120003378:	43fec23f 	beqz        	$t5, -320(0x7ffec0)	# 120003238 <__addtf3+0xd08>
   12000337c:	16800010 	lu32i.d     	$t4, 262144(0x40000)
   120003380:	0014c24c 	and         	$t0, $t6, $t4
   120003384:	0240058c 	sltui       	$t0, $t0, 1(0x1)
   120003388:	0041518c 	slli.d      	$t0, $t0, 0x14
   12000338c:	5801194b 	beq         	$a6, $a7, 280(0x118)	# 1200034a4 <__addtf3+0xf74>
   120003390:	0040a18e 	slli.w      	$t2, $t0, 0x8
   120003394:	0015398c 	or          	$t0, $t0, $t2
   120003398:	53fb3fff 	b           	-1220(0xffffb3c)	# 120002ed4 <__addtf3+0x9a4>
   12000339c:	00153dac 	or          	$t0, $t1, $t3
   1200033a0:	43f8319f 	beqz        	$t0, -2000(0x7ff830)	# 120002bd0 <__addtf3+0x6a0>
   1200033a4:	00f2c9ac 	bstrpick.d  	$t0, $t1, 0x32, 0x32
   1200033a8:	0041f5ae 	slli.d      	$t2, $t1, 0x3d
   1200033ac:	00fc00c6 	bstrpick.d  	$a2, $a2, 0x3c, 0x0
   1200033b0:	02fffd8c 	addi.d      	$t0, $t0, -1(0xfff)
   1200033b4:	00450db0 	srli.d      	$t4, $t1, 0x3
   1200033b8:	1420200d 	lu12i.w     	$t1, 65792(0x10100)
   1200033bc:	001519ce 	or          	$t2, $t2, $a2
   1200033c0:	0014b58c 	and         	$t0, $t0, $t1
   1200033c4:	53f60fff 	b           	-2548(0xffff60c)	# 1200029d0 <__addtf3+0x4a0>
   1200033c8:	43fcf0bf 	beqz        	$a1, -784(0x7ffcf0)	# 1200030b8 <__addtf3+0xb88>
   1200033cc:	03bff9b1 	ori         	$t5, $t1, 0xffe
   1200033d0:	00150010 	move        	$t4, $zero
   1200033d4:	14000a04 	lu12i.w     	$a0, 80(0x50)
   1200033d8:	02bffc12 	addi.w      	$t6, $zero, -1(0xfff)
   1200033dc:	02bffc14 	addi.w      	$t8, $zero, -1(0xfff)
   1200033e0:	53f733ff 	b           	-2256(0xffff730)	# 120002b10 <__addtf3+0x5e0>
   1200033e4:	0041f64e 	slli.d      	$t2, $t6, 0x3d
   1200033e8:	00fc0084 	bstrpick.d  	$a0, $a0, 0x3c, 0x0
   1200033ec:	0015388e 	or          	$t2, $a0, $t2
   1200033f0:	02bfe010 	addi.w      	$t4, $zero, -8(0xff8)
   1200033f4:	0045f5cd 	srli.d      	$t1, $t2, 0x3d
   1200033f8:	0014c250 	and         	$t4, $t6, $t4
   1200033fc:	00153610 	or          	$t4, $t4, $t1
   120003400:	0041f60d 	slli.d      	$t1, $t4, 0x3d
   120003404:	00fc01ce 	bstrpick.d  	$t2, $t2, 0x3c, 0x0
   120003408:	001539ae 	or          	$t2, $t1, $t2
   12000340c:	00450e10 	srli.d      	$t4, $t4, 0x3
   120003410:	53f5c3ff 	b           	-2624(0xffff5c0)	# 1200029d0 <__addtf3+0x4a0>
   120003414:	034c0105 	andi        	$a1, $a4, 0x300
   120003418:	02f400a5 	addi.d      	$a1, $a1, -768(0xd00)
   12000341c:	00150010 	move        	$t4, $zero
   120003420:	00150191 	move        	$t5, $t0
   120003424:	024004a5 	sltui       	$a1, $a1, 1(0x1)
   120003428:	0015000e 	move        	$t2, $zero
   12000342c:	00ef0210 	bstrpick.d  	$t4, $t4, 0x2f, 0x0
   120003430:	00ce0231 	bstrpick.d  	$t5, $t5, 0xe, 0x0
   120003434:	53f633ff 	b           	-2512(0xffff630)	# 120002a64 <__addtf3+0x534>
   120003438:	00153dac 	or          	$t0, $t1, $t3
   12000343c:	47fe099f 	bnez        	$t0, -504(0x7ffe08)	# 120003244 <__addtf3+0xd14>
   120003440:	43fe363f 	beqz        	$t5, -460(0x7ffe34)	# 120003274 <__addtf3+0xd44>
   120003444:	0041f64e 	slli.d      	$t2, $t6, 0x3d
   120003448:	53fa9bff 	b           	-1384(0xffffa98)	# 120002ee0 <__addtf3+0x9b0>
   12000344c:	0010bdd4 	add.d       	$t8, $t2, $t3
   120003450:	0010b64d 	add.d       	$t1, $t6, $t1
   120003454:	0012be8f 	sltu        	$t3, $t8, $t3
   120003458:	0010bdb2 	add.d       	$t6, $t1, $t3
   12000345c:	0015014b 	move        	$a7, $a6
   120003460:	53f38bff 	b           	-3192(0xffff388)	# 1200027e8 <__addtf3+0x2b8>
   120003464:	440018a0 	bnez        	$a1, 24(0x18)	# 12000347c <__addtf3+0xf4c>
   120003468:	03bff9b1 	ori         	$t5, $t1, 0xffe
   12000346c:	02bffc12 	addi.w      	$t6, $zero, -1(0xfff)
   120003470:	02bffc14 	addi.w      	$t8, $zero, -1(0xfff)
   120003474:	14000a04 	lu12i.w     	$a0, 80(0x50)
   120003478:	53f227ff 	b           	-3548(0xffff224)	# 12000269c <__addtf3+0x16c>
   12000347c:	140a0a0c 	lu12i.w     	$t0, 20560(0x5050)
   120003480:	02800405 	addi.w      	$a1, $zero, 1(0x1)
   120003484:	53f74fff 	b           	-2228(0xffff74c)	# 120002bd0 <__addtf3+0x6a0>
   120003488:	43fc30bf 	beqz        	$a1, -976(0x7ffc30)	# 1200030b8 <__addtf3+0xb88>
   12000348c:	00150291 	move        	$t5, $t8
   120003490:	00150010 	move        	$t4, $zero
   120003494:	14000a04 	lu12i.w     	$a0, 80(0x50)
   120003498:	02bffc12 	addi.w      	$t6, $zero, -1(0xfff)
   12000349c:	02bffc14 	addi.w      	$t8, $zero, -1(0xfff)
   1200034a0:	53f673ff 	b           	-2448(0xffff670)	# 120002b10 <__addtf3+0x5e0>
   1200034a4:	00153daf 	or          	$t3, $t1, $t3
   1200034a8:	47fda1ff 	bnez        	$t3, -608(0x7ffda0)	# 120003248 <__addtf3+0xd18>
   1200034ac:	0040a18d 	slli.w      	$t1, $t0, 0x8
   1200034b0:	0015358c 	or          	$t0, $t0, $t1
   1200034b4:	0041f64e 	slli.d      	$t2, $t6, 0x3d
   1200034b8:	53fa2bff 	b           	-1496(0xffffa28)	# 120002ee0 <__addtf3+0x9b0>
   1200034bc:	1700000c 	lu32i.d     	$t0, -524288(0x80000)
   1200034c0:	0300018f 	lu52i.d     	$t3, $t0, 0
   1200034c4:	0014be4f 	and         	$t3, $t6, $t3
   1200034c8:	44001da0 	bnez        	$t1, 28(0x1c)	# 1200034e4 <__addtf3+0xfb4>
   1200034cc:	44001080 	bnez        	$a0, 16(0x10)	# 1200034dc <__addtf3+0xfac>
   1200034d0:	00c1066c 	bstrpick.d  	$t0, $t7, 0x1, 0x1
   1200034d4:	00150011 	move        	$t5, $zero
   1200034d8:	43f1c19f 	beqz        	$t0, -3648(0x7ff1c0)	# 120002698 <__addtf3+0x168>
   1200034dc:	00150011 	move        	$t5, $zero
   1200034e0:	53f1b3ff 	b           	-3664(0xffff1b0)	# 120002690 <__addtf3+0x160>
   1200034e4:	00150011 	move        	$t5, $zero
   1200034e8:	53f1b3ff 	b           	-3664(0xffff1b0)	# 120002698 <__addtf3+0x168>
   1200034ec:	140000f1 	lu12i.w     	$t5, 7(0x7)
   1200034f0:	0015000e 	move        	$t2, $zero
   1200034f4:	03bffe31 	ori         	$t5, $t5, 0xfff
   1200034f8:	00150010 	move        	$t4, $zero
   1200034fc:	53f1dfff 	b           	-3620(0xffff1dc)	# 1200026d8 <__addtf3+0x1a8>
   120003500:	140000ed 	lu12i.w     	$t1, 7(0x7)
   120003504:	0040a08c 	slli.w      	$t0, $a0, 0x8
   120003508:	0041f64e 	slli.d      	$t2, $t6, 0x3d
   12000350c:	00450e94 	srli.d      	$t8, $t8, 0x3
   120003510:	03bffdad 	ori         	$t1, $t1, 0xfff
   120003514:	0015118c 	or          	$t0, $t0, $a0
   120003518:	001551ce 	or          	$t2, $t2, $t8
   12000351c:	00450e50 	srli.d      	$t4, $t6, 0x3
   120003520:	5bf4b22d 	beq         	$t5, $t1, -2896(0x3f4b0)	# 1200029d0 <__addtf3+0x4a0>
   120003524:	00ef0210 	bstrpick.d  	$t4, $t4, 0x2f, 0x0
   120003528:	00ce0231 	bstrpick.d  	$t5, $t5, 0xe, 0x0
   12000352c:	53f53bff 	b           	-2760(0xffff538)	# 120002a64 <__addtf3+0x534>

0000000120003530 <__eqtf2>:
__eqtf2():
   120003530:	00150091 	move        	$t5, $a0
   120003534:	0114c80c 	movfcsr2gr  	$t0, $zero
   120003538:	140000ed 	lu12i.w     	$t1, 7(0x7)
   12000353c:	00fec0af 	bstrpick.d  	$t3, $a1, 0x3e, 0x30
   120003540:	03bffdad 	ori         	$t1, $t1, 0xfff
   120003544:	00df018e 	bstrpick.d  	$t2, $t0, 0x1f, 0x0
   120003548:	00ef00b2 	bstrpick.d  	$t6, $a1, 0x2f, 0x0
   12000354c:	00ef00ec 	bstrpick.d  	$t0, $a3, 0x2f, 0x0
   120003550:	00fec0f0 	bstrpick.d  	$t4, $a3, 0x3e, 0x30
   120003554:	00150093 	move        	$t7, $a0
   120003558:	0045fca5 	srli.d      	$a1, $a1, 0x3f
   12000355c:	001500d4 	move        	$t8, $a2
   120003560:	0045fce7 	srli.d      	$a3, $a3, 0x3f
   120003564:	580051ed 	beq         	$t3, $t1, 80(0x50)	# 1200035b4 <__eqtf2+0x84>
   120003568:	58002e0d 	beq         	$t4, $t1, 44(0x2c)	# 120003594 <__eqtf2+0x64>
   12000356c:	02800404 	addi.w      	$a0, $zero, 1(0x1)
   120003570:	58005df0 	beq         	$t3, $t4, 92(0x5c)	# 1200035cc <__eqtf2+0x9c>
   120003574:	0015000d 	move        	$t1, $zero
   120003578:	15c1ffec 	lu12i.w     	$t0, -126977(0xe0fff)
   12000357c:	03bffd8c 	ori         	$t0, $t0, 0xfff
   120003580:	0014b1cc 	and         	$t0, $t2, $t0
   120003584:	0015358c 	or          	$t0, $t0, $t1
   120003588:	0040818c 	slli.w      	$t0, $t0, 0x0
   12000358c:	0114c180 	movgr2fcsr  	$zero, $t0
   120003590:	4c000020 	jirl        	$zero, $ra, 0
   120003594:	00151986 	or          	$a2, $t0, $a2
   120003598:	02800404 	addi.w      	$a0, $zero, 1(0x1)
   12000359c:	43ffd8df 	beqz        	$a2, -40(0x7fffd8)	# 120003574 <__eqtf2+0x44>
   1200035a0:	0045bd8d 	srli.d      	$t1, $t0, 0x2f
   1200035a4:	1420200c 	lu12i.w     	$t0, 65792(0x10100)
   1200035a8:	0013b58d 	masknez     	$t1, $t0, $t1
   1200035ac:	02800404 	addi.w      	$a0, $zero, 1(0x1)
   1200035b0:	53ffcbff 	b           	-56(0xfffffc8)	# 120003578 <__eqtf2+0x48>
   1200035b4:	0015124d 	or          	$t1, $t6, $a0
   1200035b8:	440041a0 	bnez        	$t1, 64(0x40)	# 1200035f8 <__eqtf2+0xc8>
   1200035bc:	02800404 	addi.w      	$a0, $zero, 1(0x1)
   1200035c0:	5fffb60f 	bne         	$t4, $t3, -76(0x3ffb4)	# 120003574 <__eqtf2+0x44>
   1200035c4:	00151986 	or          	$a2, $t0, $a2
   1200035c8:	47ffd8df 	bnez        	$a2, -40(0x7fffd8)	# 1200035a0 <__eqtf2+0x70>
   1200035cc:	02800404 	addi.w      	$a0, $zero, 1(0x1)
   1200035d0:	5fffa64c 	bne         	$t6, $t0, -92(0x3ffa4)	# 120003574 <__eqtf2+0x44>
   1200035d4:	5fffa274 	bne         	$t7, $t8, -96(0x3ffa0)	# 120003574 <__eqtf2+0x44>
   1200035d8:	00150004 	move        	$a0, $zero
   1200035dc:	5bff98a7 	beq         	$a1, $a3, -104(0x3ff98)	# 120003574 <__eqtf2+0x44>
   1200035e0:	00154644 	or          	$a0, $t6, $t5
   1200035e4:	00129004 	sltu        	$a0, $zero, $a0
   1200035e8:	0013bc84 	masknez     	$a0, $a0, $t3
   1200035ec:	0012bc0f 	sltu        	$t3, $zero, $t3
   1200035f0:	00153c84 	or          	$a0, $a0, $t3
   1200035f4:	53ff83ff 	b           	-128(0xfffff80)	# 120003574 <__eqtf2+0x44>
   1200035f8:	0045be52 	srli.d      	$t6, $t6, 0x2f
   1200035fc:	1420200d 	lu12i.w     	$t1, 65792(0x10100)
   120003600:	02800404 	addi.w      	$a0, $zero, 1(0x1)
   120003604:	43ff765f 	beqz        	$t6, -140(0x7fff74)	# 120003578 <__eqtf2+0x48>
   120003608:	0015000d 	move        	$t1, $zero
   12000360c:	5fff6e0f 	bne         	$t4, $t3, -148(0x3ff6c)	# 120003578 <__eqtf2+0x48>
   120003610:	0015198d 	or          	$t1, $t0, $a2
   120003614:	43ff65bf 	beqz        	$t1, -156(0x7fff64)	# 120003578 <__eqtf2+0x48>
   120003618:	53ff8bff 	b           	-120(0xfffff88)	# 1200035a0 <__eqtf2+0x70>
   12000361c:	03400000 	andi        	$zero, $zero, 0x0

0000000120003620 <__multf3>:
__multf3():
   120003620:	0114c808 	movfcsr2gr  	$a4, $zero
   120003624:	00fec0ad 	bstrpick.d  	$t1, $a1, 0x3e, 0x30
   120003628:	00ef00ae 	bstrpick.d  	$t2, $a1, 0x2f, 0x0
   12000362c:	00df0113 	bstrpick.d  	$t7, $a4, 0x1f, 0x0
   120003630:	0045fca5 	srli.d      	$a1, $a1, 0x3f
   120003634:	4001bda0 	beqz        	$t1, 444(0x1bc)	# 1200037f0 <__multf3+0x1d0>
   120003638:	140000ec 	lu12i.w     	$t0, 7(0x7)
   12000363c:	001501af 	move        	$t3, $t1
   120003640:	03bffd8c 	ori         	$t0, $t0, 0xfff
   120003644:	580201ec 	beq         	$t3, $t0, 512(0x200)	# 120003844 <__multf3+0x224>
   120003648:	00410dcf 	slli.d      	$t3, $t2, 0x3
   12000364c:	0015000c 	move        	$t0, $zero
   120003650:	0045f48e 	srli.d      	$t2, $a0, 0x3d
   120003654:	00153dce 	or          	$t2, $t2, $t3
   120003658:	1700000c 	lu32i.d     	$t0, -524288(0x80000)
   12000365c:	15ffff8f 	lu12i.w     	$t3, -4(0xffffc)
   120003660:	0300018c 	lu52i.d     	$t0, $t0, 0
   120003664:	038005ef 	ori         	$t3, $t3, 0x1
   120003668:	001531ce 	or          	$t2, $t2, $t0
   12000366c:	0010bdaf 	add.d       	$t3, $t1, $t3
   120003670:	00410c8c 	slli.d      	$t0, $a0, 0x3
   120003674:	00150011 	move        	$t5, $zero
   120003678:	00150009 	move        	$a5, $zero
   12000367c:	0015000d 	move        	$t1, $zero
   120003680:	00fec0f2 	bstrpick.d  	$t6, $a3, 0x3e, 0x30
   120003684:	00ef00f0 	bstrpick.d  	$t4, $a3, 0x2f, 0x0
   120003688:	001500c4 	move        	$a0, $a2
   12000368c:	0045fce7 	srli.d      	$a3, $a3, 0x3f
   120003690:	40011240 	beqz        	$t6, 272(0x110)	# 1200037a0 <__multf3+0x180>
   120003694:	140000f4 	lu12i.w     	$t8, 7(0x7)
   120003698:	0015024a 	move        	$a6, $t6
   12000369c:	03bffe94 	ori         	$t8, $t8, 0xfff
   1200036a0:	58006954 	beq         	$a6, $t8, 104(0x68)	# 120003708 <__multf3+0xe8>
   1200036a4:	00410e04 	slli.d      	$a0, $t4, 0x3
   1200036a8:	0045f4d0 	srli.d      	$t4, $a2, 0x3d
   1200036ac:	00151210 	or          	$t4, $t4, $a0
   1200036b0:	00150014 	move        	$t8, $zero
   1200036b4:	15ffff84 	lu12i.w     	$a0, -4(0xffffc)
   1200036b8:	03800484 	ori         	$a0, $a0, 0x1
   1200036bc:	17000014 	lu32i.d     	$t8, -524288(0x80000)
   1200036c0:	00109252 	add.d       	$t6, $t6, $a0
   1200036c4:	03000294 	lu52i.d     	$t8, $t8, 0
   1200036c8:	00155210 	or          	$t4, $t4, $t8
   1200036cc:	00410cc4 	slli.d      	$a0, $a2, 0x3
   1200036d0:	0010c9ef 	add.d       	$t3, $t3, $t6
   1200036d4:	0015000b 	move        	$a7, $zero
   1200036d8:	00159cb2 	xor         	$t6, $a1, $a3
   1200036dc:	00678252 	bstrpick.w  	$t6, $t6, 0x7, 0x0
   1200036e0:	02803c14 	addi.w      	$t8, $zero, 15(0xf)
   1200036e4:	00150246 	move        	$a2, $t6
   1200036e8:	02c005ea 	addi.d      	$a6, $t3, 1(0x1)
   1200036ec:	6802ca91 	bltu        	$t8, $t5, 712(0x2c8)	# 1200039b4 <__multf3+0x394>
   1200036f0:	1c0001b4 	pcaddu12i   	$t8, 13(0xd)
   1200036f4:	02f6a294 	addi.d      	$t8, $t8, -600(0xda8)
   1200036f8:	002d5231 	alsl.d      	$t5, $t5, $t8, 0x3
   1200036fc:	28c00231 	ld.d        	$t5, $t5, 0
   120003700:	0010c694 	add.d       	$t8, $t8, $t5
   120003704:	4c000280 	jirl        	$zero, $t8, 0
   120003708:	00151a06 	or          	$a2, $t4, $a2
   12000370c:	0010a9ef 	add.d       	$t3, $t3, $a6
   120003710:	4401a0c0 	bnez        	$a2, 416(0x1a0)	# 1200038b0 <__multf3+0x290>
   120003714:	03800a31 	ori         	$t5, $t5, 0x2
   120003718:	00150010 	move        	$t4, $zero
   12000371c:	00150004 	move        	$a0, $zero
   120003720:	0280080b 	addi.w      	$a7, $zero, 2(0x2)
   120003724:	53ffb7ff 	b           	-76(0xfffffb4)	# 1200036d8 <__multf3+0xb8>
   120003728:	001500e6 	move        	$a2, $a3
   12000372c:	001500f2 	move        	$t6, $a3
   120003730:	0015020e 	move        	$t2, $t4
   120003734:	0015008c 	move        	$t0, $a0
   120003738:	00150169 	move        	$a5, $a7
   12000373c:	0280080f 	addi.w      	$t3, $zero, 2(0x2)
   120003740:	5801a92f 	beq         	$a5, $t3, 424(0x1a8)	# 1200038e8 <__multf3+0x2c8>
   120003744:	02800c0f 	addi.w      	$t3, $zero, 3(0x3)
   120003748:	5809812f 	beq         	$a5, $t3, 2432(0x980)	# 1200040c8 <__multf3+0xaa8>
   12000374c:	0280040f 	addi.w      	$t3, $zero, 1(0x1)
   120003750:	5c05212f 	bne         	$a5, $t3, 1312(0x520)	# 120003c70 <__multf3+0x650>
   120003754:	0040a1b0 	slli.w      	$t4, $t1, 0x8
   120003758:	0015360d 	or          	$t1, $t4, $t1
   12000375c:	001501b0 	move        	$t4, $t1
   120003760:	00150011 	move        	$t5, $zero
   120003764:	0015000e 	move        	$t2, $zero
   120003768:	0015000c 	move        	$t0, $zero
   12000376c:	15c1ffed 	lu12i.w     	$t1, -126977(0xe0fff)
   120003770:	0015000f 	move        	$t3, $zero
   120003774:	03bffdad 	ori         	$t1, $t1, 0xfff
   120003778:	00af01cf 	bstrins.d   	$t3, $t2, 0x2f, 0x0
   12000377c:	0014b66d 	and         	$t1, $t7, $t1
   120003780:	00bec22f 	bstrins.d   	$t3, $t5, 0x3e, 0x30
   120003784:	001541ad 	or          	$t1, $t1, $t4
   120003788:	00bffe4f 	bstrins.d   	$t3, $t6, 0x3f, 0x3f
   12000378c:	004081ad 	slli.w      	$t1, $t1, 0x0
   120003790:	0114c1a0 	movgr2fcsr  	$zero, $t1
   120003794:	00150184 	move        	$a0, $t0
   120003798:	001501e5 	move        	$a1, $t3
   12000379c:	4c000020 	jirl        	$zero, $ra, 0
   1200037a0:	00151a12 	or          	$t6, $t4, $a2
   1200037a4:	4000f640 	beqz        	$t6, 244(0xf4)	# 120003898 <__multf3+0x278>
   1200037a8:	00002614 	clz.d       	$t8, $t4
   1200037ac:	02bfc684 	addi.w      	$a0, $t8, -15(0xff1)
   1200037b0:	44054200 	bnez        	$t4, 1344(0x540)	# 120003cf0 <__multf3+0x6d0>
   1200037b4:	000024d2 	clz.d       	$t6, $a2
   1200037b8:	02c0c64a 	addi.d      	$a6, $t6, 49(0x31)
   1200037bc:	0280f00b 	addi.w      	$a7, $zero, 60(0x3c)
   1200037c0:	00408144 	slli.w      	$a0, $a6, 0x0
   1200037c4:	02c10254 	addi.d      	$t8, $t6, 64(0x40)
   1200037c8:	6405296a 	bge         	$a7, $a6, 1320(0x528)	# 120003cf0 <__multf3+0x6d0>
   1200037cc:	02bf0c90 	addi.w      	$t4, $a0, -61(0xfc3)
   1200037d0:	0018c0d0 	sll.d       	$t4, $a2, $t4
   1200037d4:	00150004 	move        	$a0, $zero
   1200037d8:	15ffff92 	lu12i.w     	$t6, -4(0xffffc)
   1200037dc:	03804652 	ori         	$t6, $t6, 0x11
   1200037e0:	0011d252 	sub.d       	$t6, $t6, $t8
   1200037e4:	0010c9ef 	add.d       	$t3, $t3, $t6
   1200037e8:	0015000b 	move        	$a7, $zero
   1200037ec:	53feefff 	b           	-276(0xffffeec)	# 1200036d8 <__multf3+0xb8>
   1200037f0:	001511cc 	or          	$t0, $t2, $a0
   1200037f4:	40008d80 	beqz        	$t0, 140(0x8c)	# 120003880 <__multf3+0x260>
   1200037f8:	000025cd 	clz.d       	$t1, $t2
   1200037fc:	02bfc5ac 	addi.w      	$t0, $t1, -15(0xff1)
   120003800:	440525c0 	bnez        	$t2, 1316(0x524)	# 120003d24 <__multf3+0x704>
   120003804:	0000248f 	clz.d       	$t3, $a0
   120003808:	02c0c5f0 	addi.d      	$t4, $t3, 49(0x31)
   12000380c:	0280f011 	addi.w      	$t5, $zero, 60(0x3c)
   120003810:	0040820c 	slli.w      	$t0, $t4, 0x0
   120003814:	02c101ed 	addi.d      	$t1, $t3, 64(0x40)
   120003818:	64050e30 	bge         	$t5, $t4, 1292(0x50c)	# 120003d24 <__multf3+0x704>
   12000381c:	02bf0d8e 	addi.w      	$t2, $t0, -61(0xfc3)
   120003820:	0018b88e 	sll.d       	$t2, $a0, $t2
   120003824:	0015000c 	move        	$t0, $zero
   120003828:	15ffff8f 	lu12i.w     	$t3, -4(0xffffc)
   12000382c:	038045ef 	ori         	$t3, $t3, 0x11
   120003830:	0011b5ef 	sub.d       	$t3, $t3, $t1
   120003834:	00150011 	move        	$t5, $zero
   120003838:	00150009 	move        	$a5, $zero
   12000383c:	0015000d 	move        	$t1, $zero
   120003840:	53fe43ff 	b           	-448(0xffffe40)	# 120003680 <__multf3+0x60>
   120003844:	001511cc 	or          	$t0, $t2, $a0
   120003848:	40002180 	beqz        	$t0, 32(0x20)	# 120003868 <__multf3+0x248>
   12000384c:	00efbdcc 	bstrpick.d  	$t0, $t2, 0x2f, 0x2f
   120003850:	4404c180 	bnez        	$t0, 1216(0x4c0)	# 120003d10 <__multf3+0x6f0>
   120003854:	0015008c 	move        	$t0, $a0
   120003858:	02803011 	addi.w      	$t5, $zero, 12(0xc)
   12000385c:	02800c09 	addi.w      	$a5, $zero, 3(0x3)
   120003860:	1400200d 	lu12i.w     	$t1, 256(0x100)
   120003864:	53fe1fff 	b           	-484(0xffffe1c)	# 120003680 <__multf3+0x60>
   120003868:	0015000e 	move        	$t2, $zero
   12000386c:	02802011 	addi.w      	$t5, $zero, 8(0x8)
   120003870:	02800809 	addi.w      	$a5, $zero, 2(0x2)
   120003874:	0015000d 	move        	$t1, $zero
   120003878:	53fe0bff 	b           	-504(0xffffe08)	# 120003680 <__multf3+0x60>
   12000387c:	03400000 	andi        	$zero, $zero, 0x0
   120003880:	0015000e 	move        	$t2, $zero
   120003884:	02801011 	addi.w      	$t5, $zero, 4(0x4)
   120003888:	0015000f 	move        	$t3, $zero
   12000388c:	02800409 	addi.w      	$a5, $zero, 1(0x1)
   120003890:	0015000d 	move        	$t1, $zero
   120003894:	53fdefff 	b           	-532(0xffffdec)	# 120003680 <__multf3+0x60>
   120003898:	03800631 	ori         	$t5, $t5, 0x1
   12000389c:	00150010 	move        	$t4, $zero
   1200038a0:	00150004 	move        	$a0, $zero
   1200038a4:	0280040b 	addi.w      	$a7, $zero, 1(0x1)
   1200038a8:	53fe33ff 	b           	-464(0xffffe30)	# 1200036d8 <__multf3+0xb8>
   1200038ac:	03400000 	andi        	$zero, $zero, 0x0
   1200038b0:	00150012 	move        	$t6, $zero
   1200038b4:	16100012 	lu32i.d     	$t6, 32768(0x8000)
   1200038b8:	0014ca12 	and         	$t6, $t4, $t6
   1200038bc:	14002014 	lu12i.w     	$t8, 256(0x100)
   1200038c0:	001349ad 	maskeqz     	$t1, $t1, $t6
   1200038c4:	0013ca92 	masknez     	$t6, $t8, $t6
   1200038c8:	03800e31 	ori         	$t5, $t5, 0x3
   1200038cc:	02800c0b 	addi.w      	$a7, $zero, 3(0x3)
   1200038d0:	001549ad 	or          	$t1, $t1, $t6
   1200038d4:	53fe07ff 	b           	-508(0xffffe04)	# 1200036d8 <__multf3+0xb8>
   1200038d8:	0280080f 	addi.w      	$t3, $zero, 2(0x2)
   1200038dc:	001500b2 	move        	$t6, $a1
   1200038e0:	001500a6 	move        	$a2, $a1
   1200038e4:	5ffe612f 	bne         	$a5, $t3, -416(0x3fe60)	# 120003744 <__multf3+0x124>
   1200038e8:	0040a1b0 	slli.w      	$t4, $t1, 0x8
   1200038ec:	0015360d 	or          	$t1, $t4, $t1
   1200038f0:	001501b0 	move        	$t4, $t1
   1200038f4:	15c1ffed 	lu12i.w     	$t1, -126977(0xe0fff)
   1200038f8:	0015000e 	move        	$t2, $zero
   1200038fc:	140000f1 	lu12i.w     	$t5, 7(0x7)
   120003900:	0015000f 	move        	$t3, $zero
   120003904:	03bffdad 	ori         	$t1, $t1, 0xfff
   120003908:	03bffe31 	ori         	$t5, $t5, 0xfff
   12000390c:	00af01cf 	bstrins.d   	$t3, $t2, 0x2f, 0x0
   120003910:	0014b66d 	and         	$t1, $t7, $t1
   120003914:	00bec22f 	bstrins.d   	$t3, $t5, 0x3e, 0x30
   120003918:	001541ad 	or          	$t1, $t1, $t4
   12000391c:	0015000c 	move        	$t0, $zero
   120003920:	00bffe4f 	bstrins.d   	$t3, $t6, 0x3f, 0x3f
   120003924:	004081ad 	slli.w      	$t1, $t1, 0x0
   120003928:	0114c1a0 	movgr2fcsr  	$zero, $t1
   12000392c:	00150184 	move        	$a0, $t0
   120003930:	001501e5 	move        	$a1, $t3
   120003934:	4c000020 	jirl        	$zero, $ra, 0
   120003938:	02bffc0e 	addi.w      	$t2, $zero, -1(0xfff)
   12000393c:	140000f1 	lu12i.w     	$t5, 7(0x7)
   120003940:	14202010 	lu12i.w     	$t4, 65792(0x10100)
   120003944:	00150012 	move        	$t6, $zero
   120003948:	161fffee 	lu32i.d     	$t2, 65535(0xffff)
   12000394c:	02bffc0c 	addi.w      	$t0, $zero, -1(0xfff)
   120003950:	03bffe31 	ori         	$t5, $t5, 0xfff
   120003954:	15c1ffed 	lu12i.w     	$t1, -126977(0xe0fff)
   120003958:	0015000f 	move        	$t3, $zero
   12000395c:	03bffdad 	ori         	$t1, $t1, 0xfff
   120003960:	00af01cf 	bstrins.d   	$t3, $t2, 0x2f, 0x0
   120003964:	0014b66d 	and         	$t1, $t7, $t1
   120003968:	00bec22f 	bstrins.d   	$t3, $t5, 0x3e, 0x30
   12000396c:	001541ad 	or          	$t1, $t1, $t4
   120003970:	00bffe4f 	bstrins.d   	$t3, $t6, 0x3f, 0x3f
   120003974:	004081ad 	slli.w      	$t1, $t1, 0x0
   120003978:	0114c1a0 	movgr2fcsr  	$zero, $t1
   12000397c:	00150184 	move        	$a0, $t0
   120003980:	001501e5 	move        	$a1, $t3
   120003984:	4c000020 	jirl        	$zero, $ra, 0
   120003988:	0015000f 	move        	$t3, $zero
   12000398c:	0040a1b0 	slli.w      	$t4, $t1, 0x8
   120003990:	1610000f 	lu32i.d     	$t3, 32768(0x8000)
   120003994:	00153dce 	or          	$t2, $t2, $t3
   120003998:	0015360d 	or          	$t1, $t4, $t1
   12000399c:	140000f1 	lu12i.w     	$t5, 7(0x7)
   1200039a0:	00ef01ce 	bstrpick.d  	$t2, $t2, 0x2f, 0x0
   1200039a4:	001501b0 	move        	$t4, $t1
   1200039a8:	001500b2 	move        	$t6, $a1
   1200039ac:	03bffe31 	ori         	$t5, $t5, 0xfff
   1200039b0:	53ffa7ff 	b           	-92(0xfffffa4)	# 120003954 <__multf3+0x334>
   1200039b4:	02ff0063 	addi.d      	$sp, $sp, -64(0xfc0)
   1200039b8:	29c0a079 	st.d        	$s2, $sp, 40(0x28)
   1200039bc:	29c0607b 	st.d        	$s4, $sp, 24(0x18)
   1200039c0:	00458199 	srli.d      	$s2, $t0, 0x20
   1200039c4:	0045809b 	srli.d      	$s4, $a0, 0x20
   1200039c8:	00df018c 	bstrpick.d  	$t0, $t0, 0x1f, 0x0
   1200039cc:	00df0084 	bstrpick.d  	$a0, $a0, 0x1f, 0x0
   1200039d0:	001db369 	mul.d       	$a5, $s4, $t0
   1200039d4:	0045820b 	srli.d      	$a7, $t4, 0x20
   1200039d8:	00df0210 	bstrpick.d  	$t4, $t4, 0x1f, 0x0
   1200039dc:	29c0207d 	st.d        	$s6, $sp, 8(0x8)
   1200039e0:	29c0c078 	st.d        	$s1, $sp, 48(0x30)
   1200039e4:	29c0407c 	st.d        	$s5, $sp, 16(0x10)
   1200039e8:	29c0807a 	st.d        	$s3, $sp, 32(0x20)
   1200039ec:	00150011 	move        	$t5, $zero
   1200039f0:	16000031 	lu32i.d     	$t5, 1(0x1)
   1200039f4:	29c0e077 	st.d        	$s0, $sp, 56(0x38)
   1200039f8:	004581d7 	srli.d      	$s0, $t2, 0x20
   1200039fc:	00df01ce 	bstrpick.d  	$t2, $t2, 0x1f, 0x0
   120003a00:	29c0007e 	st.d        	$s7, $sp, 0
   120003a04:	001d9327 	mul.d       	$a3, $s2, $a0
   120003a08:	001db094 	mul.d       	$t8, $a0, $t0
   120003a0c:	00109d29 	add.d       	$a5, $a5, $a3
   120003a10:	00458285 	srli.d      	$a1, $t8, 0x20
   120003a14:	001dc19d 	mul.d       	$s6, $t0, $t4
   120003a18:	0010a4a5 	add.d       	$a1, $a1, $a5
   120003a1c:	00129cb8 	sltu        	$s1, $a1, $a3
   120003a20:	00df0294 	bstrpick.d  	$t8, $t8, 0x1f, 0x0
   120003a24:	004580ba 	srli.d      	$s3, $a1, 0x20
   120003a28:	004180a5 	slli.d      	$a1, $a1, 0x20
   120003a2c:	0010d0a5 	add.d       	$a1, $a1, $t8
   120003a30:	001dc329 	mul.d       	$a5, $s2, $t4
   120003a34:	004583bc 	srli.d      	$s5, $s6, 0x20
   120003a38:	00df03bd 	bstrpick.d  	$s6, $s6, 0x1f, 0x0
   120003a3c:	001db16c 	mul.d       	$t0, $a7, $t0
   120003a40:	001def27 	mul.d       	$a3, $s2, $s4
   120003a44:	0010a58c 	add.d       	$t0, $t0, $a5
   120003a48:	0010b38c 	add.d       	$t0, $s5, $t0
   120003a4c:	00418194 	slli.d      	$t8, $t0, 0x20
   120003a50:	0010f69d 	add.d       	$s6, $t8, $s6
   120003a54:	0012a589 	sltu        	$a5, $t0, $a5
   120003a58:	0010f75a 	add.d       	$s3, $s3, $s6
   120003a5c:	0045818c 	srli.d      	$t0, $t0, 0x20
   120003a60:	001daf34 	mul.d       	$t8, $s2, $a7
   120003a64:	0010c4f9 	add.d       	$s2, $a3, $t5
   120003a68:	00136339 	maskeqz     	$s2, $s2, $s1
   120003a6c:	0013e0e7 	masknez     	$a3, $a3, $s1
   120003a70:	00151f27 	or          	$a3, $s2, $a3
   120003a74:	0010e8e7 	add.d       	$a3, $a3, $s3
   120003a78:	0012f4fd 	sltu        	$s6, $a3, $s6
   120003a7c:	001db899 	mul.d       	$s2, $a0, $t2
   120003a80:	0010c698 	add.d       	$s1, $t8, $t5
   120003a84:	00132718 	maskeqz     	$s1, $s1, $a5
   120003a88:	0013a689 	masknez     	$a5, $t8, $a5
   120003a8c:	00152714 	or          	$t8, $s1, $a5
   120003a90:	0010d19c 	add.d       	$s5, $t0, $t8
   120003a94:	001d92e4 	mul.d       	$a0, $s0, $a0
   120003a98:	00df032c 	bstrpick.d  	$t0, $s2, 0x1f, 0x0
   120003a9c:	0045833a 	srli.d      	$s3, $s2, 0x20
   120003aa0:	001dbb79 	mul.d       	$s2, $s4, $t2
   120003aa4:	001dc1d4 	mul.d       	$t8, $t2, $t4
   120003aa8:	001db969 	mul.d       	$a5, $a7, $t2
   120003aac:	0010932e 	add.d       	$t2, $s2, $a0
   120003ab0:	0010bb5a 	add.d       	$s3, $s3, $t2
   120003ab4:	00418359 	slli.d      	$s2, $s3, 0x20
   120003ab8:	0010b339 	add.d       	$s2, $s2, $t0
   120003abc:	0010e4e7 	add.d       	$a3, $a3, $s2
   120003ac0:	004134ec 	slli.d      	$t0, $a3, 0xd
   120003ac4:	0045829e 	srli.d      	$s7, $t8, 0x20
   120003ac8:	00151585 	or          	$a1, $t0, $a1
   120003acc:	0012940c 	sltu        	$t0, $zero, $a1
   120003ad0:	00df0294 	bstrpick.d  	$t8, $t8, 0x1f, 0x0
   120003ad4:	0012e4f9 	sltu        	$s2, $a3, $s2
   120003ad8:	0045cce7 	srli.d      	$a3, $a3, 0x33
   120003adc:	00151d87 	or          	$a3, $t0, $a3
   120003ae0:	00129358 	sltu        	$s1, $s3, $a0
   120003ae4:	0045835a 	srli.d      	$s3, $s3, 0x20
   120003ae8:	001dc2f0 	mul.d       	$t4, $s0, $t4
   120003aec:	001ddf7b 	mul.d       	$s4, $s4, $s0
   120003af0:	0010c12e 	add.d       	$t2, $a5, $t4
   120003af4:	0010bbce 	add.d       	$t2, $s7, $t2
   120003af8:	004181c5 	slli.d      	$a1, $t2, 0x20
   120003afc:	0010d0a5 	add.d       	$a1, $a1, $t8
   120003b00:	0010f0b4 	add.d       	$t8, $a1, $s5
   120003b04:	0010f68c 	add.d       	$t0, $t8, $s6
   120003b08:	0012f59d 	sltu        	$s6, $t0, $s6
   120003b0c:	0012f294 	sltu        	$t8, $t8, $s5
   120003b10:	0012c1d0 	sltu        	$t4, $t2, $t4
   120003b14:	00157694 	or          	$t8, $t8, $s6
   120003b18:	004581ce 	srli.d      	$t2, $t2, 0x20
   120003b1c:	0010d1ce 	add.d       	$t2, $t2, $t8
   120003b20:	001ddd6b 	mul.d       	$a7, $a7, $s0
   120003b24:	0010c774 	add.d       	$t8, $s4, $t5
   120003b28:	00136294 	maskeqz     	$t8, $t8, $s1
   120003b2c:	0013e37b 	masknez     	$s4, $s4, $s1
